
a.out:     file format elf64-x86-64


Disassembly of section .init:

0000000000403460 <_init>:
  403460:	48 83 ec 08          	sub    $0x8,%rsp
  403464:	48 8b 05 8d cb 21 00 	mov    0x21cb8d(%rip),%rax        # 61fff8 <_DYNAMIC+0x210>
  40346b:	48 85 c0             	test   %rax,%rax
  40346e:	74 05                	je     403475 <_init+0x15>
  403470:	e8 eb 07 00 00       	callq  403c60 <_ZNSt15basic_streambufIcSt11char_traitsIcEED2Ev@plt+0x10>
  403475:	48 83 c4 08          	add    $0x8,%rsp
  403479:	c3                   	retq   

Disassembly of section .plt:

0000000000403480 <pthread_cond_signal@plt-0x10>:
  403480:	ff 35 82 cb 21 00    	pushq  0x21cb82(%rip)        # 620008 <_GLOBAL_OFFSET_TABLE_+0x8>
  403486:	ff 25 84 cb 21 00    	jmpq   *0x21cb84(%rip)        # 620010 <_GLOBAL_OFFSET_TABLE_+0x10>
  40348c:	0f 1f 40 00          	nopl   0x0(%rax)

0000000000403490 <pthread_cond_signal@plt>:
  403490:	ff 25 82 cb 21 00    	jmpq   *0x21cb82(%rip)        # 620018 <_GLOBAL_OFFSET_TABLE_+0x18>
  403496:	68 00 00 00 00       	pushq  $0x0
  40349b:	e9 e0 ff ff ff       	jmpq   403480 <_init+0x20>

00000000004034a0 <__errno_location@plt>:
  4034a0:	ff 25 7a cb 21 00    	jmpq   *0x21cb7a(%rip)        # 620020 <_GLOBAL_OFFSET_TABLE_+0x20>
  4034a6:	68 01 00 00 00       	pushq  $0x1
  4034ab:	e9 d0 ff ff ff       	jmpq   403480 <_init+0x20>

00000000004034b0 <_ZNSirsERj@plt>:
  4034b0:	ff 25 72 cb 21 00    	jmpq   *0x21cb72(%rip)        # 620028 <_GLOBAL_OFFSET_TABLE_+0x28>
  4034b6:	68 02 00 00 00       	pushq  $0x2
  4034bb:	e9 c0 ff ff ff       	jmpq   403480 <_init+0x20>

00000000004034c0 <_ZNSaIcED2Ev@plt>:
  4034c0:	ff 25 6a cb 21 00    	jmpq   *0x21cb6a(%rip)        # 620030 <_GLOBAL_OFFSET_TABLE_+0x30>
  4034c6:	68 03 00 00 00       	pushq  $0x3
  4034cb:	e9 b0 ff ff ff       	jmpq   403480 <_init+0x20>

00000000004034d0 <_ZSt7getlineIcSt11char_traitsIcESaIcEERSt13basic_istreamIT_T0_ES7_RNSt7__cxx1112basic_stringIS4_S5_T1_EE@plt>:
  4034d0:	ff 25 62 cb 21 00    	jmpq   *0x21cb62(%rip)        # 620038 <_GLOBAL_OFFSET_TABLE_+0x38>
  4034d6:	68 04 00 00 00       	pushq  $0x4
  4034db:	e9 a0 ff ff ff       	jmpq   403480 <_init+0x20>

00000000004034e0 <_ZNSolsEPSt15basic_streambufIcSt11char_traitsIcEE@plt>:
  4034e0:	ff 25 5a cb 21 00    	jmpq   *0x21cb5a(%rip)        # 620040 <_GLOBAL_OFFSET_TABLE_+0x40>
  4034e6:	68 05 00 00 00       	pushq  $0x5
  4034eb:	e9 90 ff ff ff       	jmpq   403480 <_init+0x20>

00000000004034f0 <_ZNSt15basic_streambufIcSt11char_traitsIcEE9pbackfailEi@plt>:
  4034f0:	ff 25 52 cb 21 00    	jmpq   *0x21cb52(%rip)        # 620048 <_GLOBAL_OFFSET_TABLE_+0x48>
  4034f6:	68 06 00 00 00       	pushq  $0x6
  4034fb:	e9 80 ff ff ff       	jmpq   403480 <_init+0x20>

0000000000403500 <socket@plt>:
  403500:	ff 25 4a cb 21 00    	jmpq   *0x21cb4a(%rip)        # 620050 <_GLOBAL_OFFSET_TABLE_+0x50>
  403506:	68 07 00 00 00       	pushq  $0x7
  40350b:	e9 70 ff ff ff       	jmpq   403480 <_init+0x20>

0000000000403510 <_ZNSt15basic_streambufIcSt11char_traitsIcEEC2Ev@plt>:
  403510:	ff 25 42 cb 21 00    	jmpq   *0x21cb42(%rip)        # 620058 <_GLOBAL_OFFSET_TABLE_+0x58>
  403516:	68 08 00 00 00       	pushq  $0x8
  40351b:	e9 60 ff ff ff       	jmpq   403480 <_init+0x20>

0000000000403520 <_ZNKSt7__cxx1112basic_stringIcSt11char_traitsIcESaIcEE7compareEPKc@plt>:
  403520:	ff 25 3a cb 21 00    	jmpq   *0x21cb3a(%rip)        # 620060 <_GLOBAL_OFFSET_TABLE_+0x60>
  403526:	68 09 00 00 00       	pushq  $0x9
  40352b:	e9 50 ff ff ff       	jmpq   403480 <_init+0x20>

0000000000403530 <_ZNKSt15basic_streambufIcSt11char_traitsIcEE4pptrEv@plt>:
  403530:	ff 25 32 cb 21 00    	jmpq   *0x21cb32(%rip)        # 620068 <_GLOBAL_OFFSET_TABLE_+0x68>
  403536:	68 0a 00 00 00       	pushq  $0xa
  40353b:	e9 40 ff ff ff       	jmpq   403480 <_init+0x20>

0000000000403540 <_ZNKSt15basic_streambufIcSt11char_traitsIcEE4gptrEv@plt>:
  403540:	ff 25 2a cb 21 00    	jmpq   *0x21cb2a(%rip)        # 620070 <_GLOBAL_OFFSET_TABLE_+0x70>
  403546:	68 0b 00 00 00       	pushq  $0xb
  40354b:	e9 30 ff ff ff       	jmpq   403480 <_init+0x20>

0000000000403550 <recvmsg@plt>:
  403550:	ff 25 22 cb 21 00    	jmpq   *0x21cb22(%rip)        # 620078 <_GLOBAL_OFFSET_TABLE_+0x78>
  403556:	68 0c 00 00 00       	pushq  $0xc
  40355b:	e9 20 ff ff ff       	jmpq   403480 <_init+0x20>

0000000000403560 <_ZNSt15basic_streambufIcSt11char_traitsIcEE5imbueERKSt6locale@plt>:
  403560:	ff 25 1a cb 21 00    	jmpq   *0x21cb1a(%rip)        # 620080 <_GLOBAL_OFFSET_TABLE_+0x80>
  403566:	68 0d 00 00 00       	pushq  $0xd
  40356b:	e9 10 ff ff ff       	jmpq   403480 <_init+0x20>

0000000000403570 <_ZNSt15basic_streambufIcSt11char_traitsIcEE5uflowEv@plt>:
  403570:	ff 25 12 cb 21 00    	jmpq   *0x21cb12(%rip)        # 620088 <_GLOBAL_OFFSET_TABLE_+0x88>
  403576:	68 0e 00 00 00       	pushq  $0xe
  40357b:	e9 00 ff ff ff       	jmpq   403480 <_init+0x20>

0000000000403580 <pthread_cond_broadcast@plt>:
  403580:	ff 25 0a cb 21 00    	jmpq   *0x21cb0a(%rip)        # 620090 <_GLOBAL_OFFSET_TABLE_+0x90>
  403586:	68 0f 00 00 00       	pushq  $0xf
  40358b:	e9 f0 fe ff ff       	jmpq   403480 <_init+0x20>

0000000000403590 <write@plt>:
  403590:	ff 25 02 cb 21 00    	jmpq   *0x21cb02(%rip)        # 620098 <_GLOBAL_OFFSET_TABLE_+0x98>
  403596:	68 10 00 00 00       	pushq  $0x10
  40359b:	e9 e0 fe ff ff       	jmpq   403480 <_init+0x20>

00000000004035a0 <_ZSt17__throw_bad_allocv@plt>:
  4035a0:	ff 25 fa ca 21 00    	jmpq   *0x21cafa(%rip)        # 6200a0 <_GLOBAL_OFFSET_TABLE_+0xa0>
  4035a6:	68 11 00 00 00       	pushq  $0x11
  4035ab:	e9 d0 fe ff ff       	jmpq   403480 <_init+0x20>

00000000004035b0 <_ZNSoC1EPSt15basic_streambufIcSt11char_traitsIcEE@plt>:
  4035b0:	ff 25 f2 ca 21 00    	jmpq   *0x21caf2(%rip)        # 6200a8 <_GLOBAL_OFFSET_TABLE_+0xa8>
  4035b6:	68 12 00 00 00       	pushq  $0x12
  4035bb:	e9 c0 fe ff ff       	jmpq   403480 <_init+0x20>

00000000004035c0 <__cxa_begin_catch@plt>:
  4035c0:	ff 25 ea ca 21 00    	jmpq   *0x21caea(%rip)        # 6200b0 <_GLOBAL_OFFSET_TABLE_+0xb0>
  4035c6:	68 13 00 00 00       	pushq  $0x13
  4035cb:	e9 b0 fe ff ff       	jmpq   403480 <_init+0x20>

00000000004035d0 <_ZNKSt7__cxx1112basic_stringIcSt11char_traitsIcESaIcEE5c_strEv@plt>:
  4035d0:	ff 25 e2 ca 21 00    	jmpq   *0x21cae2(%rip)        # 6200b8 <_GLOBAL_OFFSET_TABLE_+0xb8>
  4035d6:	68 14 00 00 00       	pushq  $0x14
  4035db:	e9 a0 fe ff ff       	jmpq   403480 <_init+0x20>

00000000004035e0 <_ZNSt7__cxx1112basic_stringIcSt11char_traitsIcESaIcEEC1ERKS4_@plt>:
  4035e0:	ff 25 da ca 21 00    	jmpq   *0x21cada(%rip)        # 6200c0 <_GLOBAL_OFFSET_TABLE_+0xc0>
  4035e6:	68 15 00 00 00       	pushq  $0x15
  4035eb:	e9 90 fe ff ff       	jmpq   403480 <_init+0x20>

00000000004035f0 <_ZNKSt9basic_iosIcSt11char_traitsIcEEntEv@plt>:
  4035f0:	ff 25 d2 ca 21 00    	jmpq   *0x21cad2(%rip)        # 6200c8 <_GLOBAL_OFFSET_TABLE_+0xc8>
  4035f6:	68 16 00 00 00       	pushq  $0x16
  4035fb:	e9 80 fe ff ff       	jmpq   403480 <_init+0x20>

0000000000403600 <epoll_wait@plt>:
  403600:	ff 25 ca ca 21 00    	jmpq   *0x21caca(%rip)        # 6200d0 <_GLOBAL_OFFSET_TABLE_+0xd0>
  403606:	68 17 00 00 00       	pushq  $0x17
  40360b:	e9 70 fe ff ff       	jmpq   403480 <_init+0x20>

0000000000403610 <__cxa_allocate_exception@plt>:
  403610:	ff 25 c2 ca 21 00    	jmpq   *0x21cac2(%rip)        # 6200d8 <_GLOBAL_OFFSET_TABLE_+0xd8>
  403616:	68 18 00 00 00       	pushq  $0x18
  40361b:	e9 60 fe ff ff       	jmpq   403480 <_init+0x20>

0000000000403620 <pthread_join@plt>:
  403620:	ff 25 ba ca 21 00    	jmpq   *0x21caba(%rip)        # 6200e0 <_GLOBAL_OFFSET_TABLE_+0xe0>
  403626:	68 19 00 00 00       	pushq  $0x19
  40362b:	e9 50 fe ff ff       	jmpq   403480 <_init+0x20>

0000000000403630 <_ZSt20__throw_length_errorPKc@plt>:
  403630:	ff 25 b2 ca 21 00    	jmpq   *0x21cab2(%rip)        # 6200e8 <_GLOBAL_OFFSET_TABLE_+0xe8>
  403636:	68 1a 00 00 00       	pushq  $0x1a
  40363b:	e9 40 fe ff ff       	jmpq   403480 <_init+0x20>

0000000000403640 <memset@plt>:
  403640:	ff 25 aa ca 21 00    	jmpq   *0x21caaa(%rip)        # 6200f0 <_GLOBAL_OFFSET_TABLE_+0xf0>
  403646:	68 1b 00 00 00       	pushq  $0x1b
  40364b:	e9 30 fe ff ff       	jmpq   403480 <_init+0x20>

0000000000403650 <pthread_create@plt>:
  403650:	ff 25 a2 ca 21 00    	jmpq   *0x21caa2(%rip)        # 6200f8 <_GLOBAL_OFFSET_TABLE_+0xf8>
  403656:	68 1c 00 00 00       	pushq  $0x1c
  40365b:	e9 20 fe ff ff       	jmpq   403480 <_init+0x20>

0000000000403660 <fcntl@plt>:
  403660:	ff 25 9a ca 21 00    	jmpq   *0x21ca9a(%rip)        # 620100 <_GLOBAL_OFFSET_TABLE_+0x100>
  403666:	68 1d 00 00 00       	pushq  $0x1d
  40366b:	e9 10 fe ff ff       	jmpq   403480 <_init+0x20>

0000000000403670 <_ZNSt7__cxx1112basic_stringIcSt11char_traitsIcESaIcEEC1EOS4_@plt>:
  403670:	ff 25 92 ca 21 00    	jmpq   *0x21ca92(%rip)        # 620108 <_GLOBAL_OFFSET_TABLE_+0x108>
  403676:	68 1e 00 00 00       	pushq  $0x1e
  40367b:	e9 00 fe ff ff       	jmpq   403480 <_init+0x20>

0000000000403680 <_ZNSt7__cxx1112basic_stringIcSt11char_traitsIcESaIcEED1Ev@plt>:
  403680:	ff 25 8a ca 21 00    	jmpq   *0x21ca8a(%rip)        # 620110 <_GLOBAL_OFFSET_TABLE_+0x110>
  403686:	68 1f 00 00 00       	pushq  $0x1f
  40368b:	e9 f0 fd ff ff       	jmpq   403480 <_init+0x20>

0000000000403690 <__cxa_guard_release@plt>:
  403690:	ff 25 82 ca 21 00    	jmpq   *0x21ca82(%rip)        # 620118 <_GLOBAL_OFFSET_TABLE_+0x118>
  403696:	68 20 00 00 00       	pushq  $0x20
  40369b:	e9 e0 fd ff ff       	jmpq   403480 <_init+0x20>

00000000004036a0 <__assert_fail@plt>:
  4036a0:	ff 25 7a ca 21 00    	jmpq   *0x21ca7a(%rip)        # 620120 <_GLOBAL_OFFSET_TABLE_+0x120>
  4036a6:	68 21 00 00 00       	pushq  $0x21
  4036ab:	e9 d0 fd ff ff       	jmpq   403480 <_init+0x20>

00000000004036b0 <__cxa_free_exception@plt>:
  4036b0:	ff 25 72 ca 21 00    	jmpq   *0x21ca72(%rip)        # 620128 <_GLOBAL_OFFSET_TABLE_+0x128>
  4036b6:	68 22 00 00 00       	pushq  $0x22
  4036bb:	e9 c0 fd ff ff       	jmpq   403480 <_init+0x20>

00000000004036c0 <getsockopt@plt>:
  4036c0:	ff 25 6a ca 21 00    	jmpq   *0x21ca6a(%rip)        # 620130 <_GLOBAL_OFFSET_TABLE_+0x130>
  4036c6:	68 23 00 00 00       	pushq  $0x23
  4036cb:	e9 b0 fd ff ff       	jmpq   403480 <_init+0x20>

00000000004036d0 <pthread_mutex_unlock@plt>:
  4036d0:	ff 25 62 ca 21 00    	jmpq   *0x21ca62(%rip)        # 620138 <_GLOBAL_OFFSET_TABLE_+0x138>
  4036d6:	68 24 00 00 00       	pushq  $0x24
  4036db:	e9 a0 fd ff ff       	jmpq   403480 <_init+0x20>

00000000004036e0 <timerfd_settime@plt>:
  4036e0:	ff 25 5a ca 21 00    	jmpq   *0x21ca5a(%rip)        # 620140 <_GLOBAL_OFFSET_TABLE_+0x140>
  4036e6:	68 25 00 00 00       	pushq  $0x25
  4036eb:	e9 90 fd ff ff       	jmpq   403480 <_init+0x20>

00000000004036f0 <_ZNSt15basic_streambufIcSt11char_traitsIcEE6setbufEPcl@plt>:
  4036f0:	ff 25 52 ca 21 00    	jmpq   *0x21ca52(%rip)        # 620148 <_GLOBAL_OFFSET_TABLE_+0x148>
  4036f6:	68 26 00 00 00       	pushq  $0x26
  4036fb:	e9 80 fd ff ff       	jmpq   403480 <_init+0x20>

0000000000403700 <sendmsg@plt>:
  403700:	ff 25 4a ca 21 00    	jmpq   *0x21ca4a(%rip)        # 620150 <_GLOBAL_OFFSET_TABLE_+0x150>
  403706:	68 27 00 00 00       	pushq  $0x27
  40370b:	e9 70 fd ff ff       	jmpq   403480 <_init+0x20>

0000000000403710 <memcpy@plt>:
  403710:	ff 25 42 ca 21 00    	jmpq   *0x21ca42(%rip)        # 620158 <_GLOBAL_OFFSET_TABLE_+0x158>
  403716:	68 28 00 00 00       	pushq  $0x28
  40371b:	e9 60 fd ff ff       	jmpq   403480 <_init+0x20>

0000000000403720 <connect@plt>:
  403720:	ff 25 3a ca 21 00    	jmpq   *0x21ca3a(%rip)        # 620160 <_GLOBAL_OFFSET_TABLE_+0x160>
  403726:	68 29 00 00 00       	pushq  $0x29
  40372b:	e9 50 fd ff ff       	jmpq   403480 <_init+0x20>

0000000000403730 <__cxa_atexit@plt>:
  403730:	ff 25 32 ca 21 00    	jmpq   *0x21ca32(%rip)        # 620168 <_GLOBAL_OFFSET_TABLE_+0x168>
  403736:	68 2a 00 00 00       	pushq  $0x2a
  40373b:	e9 40 fd ff ff       	jmpq   403480 <_init+0x20>

0000000000403740 <_ZStlsIcSt11char_traitsIcESaIcEERSt13basic_ostreamIT_T0_ES7_RKNSt7__cxx1112basic_stringIS4_S5_T1_EE@plt>:
  403740:	ff 25 2a ca 21 00    	jmpq   *0x21ca2a(%rip)        # 620170 <_GLOBAL_OFFSET_TABLE_+0x170>
  403746:	68 2b 00 00 00       	pushq  $0x2b
  40374b:	e9 30 fd ff ff       	jmpq   403480 <_init+0x20>

0000000000403750 <_ZNSt15basic_streambufIcSt11char_traitsIcEE6xsgetnEPcl@plt>:
  403750:	ff 25 22 ca 21 00    	jmpq   *0x21ca22(%rip)        # 620178 <_GLOBAL_OFFSET_TABLE_+0x178>
  403756:	68 2c 00 00 00       	pushq  $0x2c
  40375b:	e9 20 fd ff ff       	jmpq   403480 <_init+0x20>

0000000000403760 <_ZdlPv@plt>:
  403760:	ff 25 1a ca 21 00    	jmpq   *0x21ca1a(%rip)        # 620180 <_GLOBAL_OFFSET_TABLE_+0x180>
  403766:	68 2d 00 00 00       	pushq  $0x2d
  40376b:	e9 10 fd ff ff       	jmpq   403480 <_init+0x20>

0000000000403770 <_ZNKSt7__cxx1112basic_stringIcSt11char_traitsIcESaIcEE5beginEv@plt>:
  403770:	ff 25 12 ca 21 00    	jmpq   *0x21ca12(%rip)        # 620188 <_GLOBAL_OFFSET_TABLE_+0x188>
  403776:	68 2e 00 00 00       	pushq  $0x2e
  40377b:	e9 00 fd ff ff       	jmpq   403480 <_init+0x20>

0000000000403780 <_ZNSt7__cxx1112basic_stringIcSt11char_traitsIcESaIcEEpLEPKc@plt>:
  403780:	ff 25 0a ca 21 00    	jmpq   *0x21ca0a(%rip)        # 620190 <_GLOBAL_OFFSET_TABLE_+0x190>
  403786:	68 2f 00 00 00       	pushq  $0x2f
  40378b:	e9 f0 fc ff ff       	jmpq   403480 <_init+0x20>

0000000000403790 <_ZNSt12length_errorD2Ev@plt>:
  403790:	ff 25 02 ca 21 00    	jmpq   *0x21ca02(%rip)        # 620198 <_GLOBAL_OFFSET_TABLE_+0x198>
  403796:	68 30 00 00 00       	pushq  $0x30
  40379b:	e9 e0 fc ff ff       	jmpq   403480 <_init+0x20>

00000000004037a0 <_ZStlsISt11char_traitsIcEERSt13basic_ostreamIcT_ES5_PKc@plt>:
  4037a0:	ff 25 fa c9 21 00    	jmpq   *0x21c9fa(%rip)        # 6201a0 <_GLOBAL_OFFSET_TABLE_+0x1a0>
  4037a6:	68 31 00 00 00       	pushq  $0x31
  4037ab:	e9 d0 fc ff ff       	jmpq   403480 <_init+0x20>

00000000004037b0 <_Znwm@plt>:
  4037b0:	ff 25 f2 c9 21 00    	jmpq   *0x21c9f2(%rip)        # 6201a8 <_GLOBAL_OFFSET_TABLE_+0x1a8>
  4037b6:	68 32 00 00 00       	pushq  $0x32
  4037bb:	e9 c0 fc ff ff       	jmpq   403480 <_init+0x20>

00000000004037c0 <_ZNSt12length_errorD1Ev@plt>:
  4037c0:	ff 25 ea c9 21 00    	jmpq   *0x21c9ea(%rip)        # 6201b0 <_GLOBAL_OFFSET_TABLE_+0x1b0>
  4037c6:	68 33 00 00 00       	pushq  $0x33
  4037cb:	e9 b0 fc ff ff       	jmpq   403480 <_init+0x20>

00000000004037d0 <_ZNKSt7__cxx1112basic_stringIcSt11char_traitsIcESaIcEE6substrEmm@plt>:
  4037d0:	ff 25 e2 c9 21 00    	jmpq   *0x21c9e2(%rip)        # 6201b8 <_GLOBAL_OFFSET_TABLE_+0x1b8>
  4037d6:	68 34 00 00 00       	pushq  $0x34
  4037db:	e9 a0 fc ff ff       	jmpq   403480 <_init+0x20>

00000000004037e0 <pthread_detach@plt>:
  4037e0:	ff 25 da c9 21 00    	jmpq   *0x21c9da(%rip)        # 6201c0 <_GLOBAL_OFFSET_TABLE_+0x1c0>
  4037e6:	68 35 00 00 00       	pushq  $0x35
  4037eb:	e9 90 fc ff ff       	jmpq   403480 <_init+0x20>

00000000004037f0 <_ZNSaIcED1Ev@plt>:
  4037f0:	ff 25 d2 c9 21 00    	jmpq   *0x21c9d2(%rip)        # 6201c8 <_GLOBAL_OFFSET_TABLE_+0x1c8>
  4037f6:	68 36 00 00 00       	pushq  $0x36
  4037fb:	e9 80 fc ff ff       	jmpq   403480 <_init+0x20>

0000000000403800 <_ZNSt15basic_streambufIcSt11char_traitsIcEE6xsputnEPKcl@plt>:
  403800:	ff 25 ca c9 21 00    	jmpq   *0x21c9ca(%rip)        # 6201d0 <_GLOBAL_OFFSET_TABLE_+0x1d0>
  403806:	68 37 00 00 00       	pushq  $0x37
  40380b:	e9 70 fc ff ff       	jmpq   403480 <_init+0x20>

0000000000403810 <_ZN5boost6system15system_categoryEv@plt>:
  403810:	ff 25 c2 c9 21 00    	jmpq   *0x21c9c2(%rip)        # 6201d8 <_GLOBAL_OFFSET_TABLE_+0x1d8>
  403816:	68 38 00 00 00       	pushq  $0x38
  40381b:	e9 60 fc ff ff       	jmpq   403480 <_init+0x20>

0000000000403820 <_ZNSt13runtime_errorD2Ev@plt>:
  403820:	ff 25 ba c9 21 00    	jmpq   *0x21c9ba(%rip)        # 6201e0 <_GLOBAL_OFFSET_TABLE_+0x1e0>
  403826:	68 39 00 00 00       	pushq  $0x39
  40382b:	e9 50 fc ff ff       	jmpq   403480 <_init+0x20>

0000000000403830 <__stack_chk_fail@plt>:
  403830:	ff 25 b2 c9 21 00    	jmpq   *0x21c9b2(%rip)        # 6201e8 <_GLOBAL_OFFSET_TABLE_+0x1e8>
  403836:	68 3a 00 00 00       	pushq  $0x3a
  40383b:	e9 40 fc ff ff       	jmpq   403480 <_init+0x20>

0000000000403840 <_ZNSt12length_errorC1EPKc@plt>:
  403840:	ff 25 aa c9 21 00    	jmpq   *0x21c9aa(%rip)        # 6201f0 <_GLOBAL_OFFSET_TABLE_+0x1f0>
  403846:	68 3b 00 00 00       	pushq  $0x3b
  40384b:	e9 30 fc ff ff       	jmpq   403480 <_init+0x20>

0000000000403850 <pthread_mutex_destroy@plt>:
  403850:	ff 25 a2 c9 21 00    	jmpq   *0x21c9a2(%rip)        # 6201f8 <_GLOBAL_OFFSET_TABLE_+0x1f8>
  403856:	68 3c 00 00 00       	pushq  $0x3c
  40385b:	e9 20 fc ff ff       	jmpq   403480 <_init+0x20>

0000000000403860 <pthread_cond_init@plt>:
  403860:	ff 25 9a c9 21 00    	jmpq   *0x21c99a(%rip)        # 620200 <_GLOBAL_OFFSET_TABLE_+0x200>
  403866:	68 3d 00 00 00       	pushq  $0x3d
  40386b:	e9 10 fc ff ff       	jmpq   403480 <_init+0x20>

0000000000403870 <eventfd@plt>:
  403870:	ff 25 92 c9 21 00    	jmpq   *0x21c992(%rip)        # 620208 <_GLOBAL_OFFSET_TABLE_+0x208>
  403876:	68 3e 00 00 00       	pushq  $0x3e
  40387b:	e9 00 fc ff ff       	jmpq   403480 <_init+0x20>

0000000000403880 <getaddrinfo@plt>:
  403880:	ff 25 8a c9 21 00    	jmpq   *0x21c98a(%rip)        # 620210 <_GLOBAL_OFFSET_TABLE_+0x210>
  403886:	68 3f 00 00 00       	pushq  $0x3f
  40388b:	e9 f0 fb ff ff       	jmpq   403480 <_init+0x20>

0000000000403890 <_ZNKSt9basic_iosIcSt11char_traitsIcEEcvbEv@plt>:
  403890:	ff 25 82 c9 21 00    	jmpq   *0x21c982(%rip)        # 620218 <_GLOBAL_OFFSET_TABLE_+0x218>
  403896:	68 40 00 00 00       	pushq  $0x40
  40389b:	e9 e0 fb ff ff       	jmpq   403480 <_init+0x20>

00000000004038a0 <_ZStrsIcSt11char_traitsIcESaIcEERSt13basic_istreamIT_T0_ES7_RNSt7__cxx1112basic_stringIS4_S5_T1_EE@plt>:
  4038a0:	ff 25 7a c9 21 00    	jmpq   *0x21c97a(%rip)        # 620220 <_GLOBAL_OFFSET_TABLE_+0x220>
  4038a6:	68 41 00 00 00       	pushq  $0x41
  4038ab:	e9 d0 fb ff ff       	jmpq   403480 <_init+0x20>

00000000004038b0 <_ZNSt7__cxx1112basic_stringIcSt11char_traitsIcESaIcEEpLERKS4_@plt>:
  4038b0:	ff 25 72 c9 21 00    	jmpq   *0x21c972(%rip)        # 620228 <_GLOBAL_OFFSET_TABLE_+0x228>
  4038b6:	68 42 00 00 00       	pushq  $0x42
  4038bb:	e9 c0 fb ff ff       	jmpq   403480 <_init+0x20>

00000000004038c0 <_ZNKSt15basic_streambufIcSt11char_traitsIcEE5epptrEv@plt>:
  4038c0:	ff 25 6a c9 21 00    	jmpq   *0x21c96a(%rip)        # 620230 <_GLOBAL_OFFSET_TABLE_+0x230>
  4038c6:	68 43 00 00 00       	pushq  $0x43
  4038cb:	e9 b0 fb ff ff       	jmpq   403480 <_init+0x20>

00000000004038d0 <__cxa_call_unexpected@plt>:
  4038d0:	ff 25 62 c9 21 00    	jmpq   *0x21c962(%rip)        # 620238 <_GLOBAL_OFFSET_TABLE_+0x238>
  4038d6:	68 44 00 00 00       	pushq  $0x44
  4038db:	e9 a0 fb ff ff       	jmpq   403480 <_init+0x20>

00000000004038e0 <_ZNSt13runtime_errorC2ERKS_@plt>:
  4038e0:	ff 25 5a c9 21 00    	jmpq   *0x21c95a(%rip)        # 620240 <_GLOBAL_OFFSET_TABLE_+0x240>
  4038e6:	68 45 00 00 00       	pushq  $0x45
  4038eb:	e9 90 fb ff ff       	jmpq   403480 <_init+0x20>

00000000004038f0 <freeaddrinfo@plt>:
  4038f0:	ff 25 52 c9 21 00    	jmpq   *0x21c952(%rip)        # 620248 <_GLOBAL_OFFSET_TABLE_+0x248>
  4038f6:	68 46 00 00 00       	pushq  $0x46
  4038fb:	e9 80 fb ff ff       	jmpq   403480 <_init+0x20>

0000000000403900 <epoll_create1@plt>:
  403900:	ff 25 4a c9 21 00    	jmpq   *0x21c94a(%rip)        # 620250 <_GLOBAL_OFFSET_TABLE_+0x250>
  403906:	68 47 00 00 00       	pushq  $0x47
  40390b:	e9 70 fb ff ff       	jmpq   403480 <_init+0x20>

0000000000403910 <_ZNSolsEj@plt>:
  403910:	ff 25 42 c9 21 00    	jmpq   *0x21c942(%rip)        # 620258 <_GLOBAL_OFFSET_TABLE_+0x258>
  403916:	68 48 00 00 00       	pushq  $0x48
  40391b:	e9 60 fb ff ff       	jmpq   403480 <_init+0x20>

0000000000403920 <_ZNSt7__cxx1112basic_stringIcSt11char_traitsIcESaIcEEaSEPKc@plt>:
  403920:	ff 25 3a c9 21 00    	jmpq   *0x21c93a(%rip)        # 620260 <_GLOBAL_OFFSET_TABLE_+0x260>
  403926:	68 49 00 00 00       	pushq  $0x49
  40392b:	e9 50 fb ff ff       	jmpq   403480 <_init+0x20>

0000000000403930 <pipe@plt>:
  403930:	ff 25 32 c9 21 00    	jmpq   *0x21c932(%rip)        # 620268 <_GLOBAL_OFFSET_TABLE_+0x268>
  403936:	68 4a 00 00 00       	pushq  $0x4a
  40393b:	e9 40 fb ff ff       	jmpq   403480 <_init+0x20>

0000000000403940 <_ZNSt7__cxx1112basic_stringIcSt11char_traitsIcESaIcEEC1EPKcRKS3_@plt>:
  403940:	ff 25 2a c9 21 00    	jmpq   *0x21c92a(%rip)        # 620270 <_GLOBAL_OFFSET_TABLE_+0x270>
  403946:	68 4b 00 00 00       	pushq  $0x4b
  40394b:	e9 30 fb ff ff       	jmpq   403480 <_init+0x20>

0000000000403950 <_ZNKSt13runtime_error4whatEv@plt>:
  403950:	ff 25 22 c9 21 00    	jmpq   *0x21c922(%rip)        # 620278 <_GLOBAL_OFFSET_TABLE_+0x278>
  403956:	68 4c 00 00 00       	pushq  $0x4c
  40395b:	e9 20 fb ff ff       	jmpq   403480 <_init+0x20>

0000000000403960 <epoll_ctl@plt>:
  403960:	ff 25 1a c9 21 00    	jmpq   *0x21c91a(%rip)        # 620280 <_GLOBAL_OFFSET_TABLE_+0x280>
  403966:	68 4d 00 00 00       	pushq  $0x4d
  40396b:	e9 10 fb ff ff       	jmpq   403480 <_init+0x20>

0000000000403970 <_ZNSt7__cxx1112basic_stringIcSt11char_traitsIcESaIcEEC1Ev@plt>:
  403970:	ff 25 12 c9 21 00    	jmpq   *0x21c912(%rip)        # 620288 <_GLOBAL_OFFSET_TABLE_+0x288>
  403976:	68 4e 00 00 00       	pushq  $0x4e
  40397b:	e9 00 fb ff ff       	jmpq   403480 <_init+0x20>

0000000000403980 <strcmp@plt>:
  403980:	ff 25 0a c9 21 00    	jmpq   *0x21c90a(%rip)        # 620290 <_GLOBAL_OFFSET_TABLE_+0x290>
  403986:	68 4f 00 00 00       	pushq  $0x4f
  40398b:	e9 f0 fa ff ff       	jmpq   403480 <_init+0x20>

0000000000403990 <ioctl@plt>:
  403990:	ff 25 02 c9 21 00    	jmpq   *0x21c902(%rip)        # 620298 <_GLOBAL_OFFSET_TABLE_+0x298>
  403996:	68 50 00 00 00       	pushq  $0x50
  40399b:	e9 e0 fa ff ff       	jmpq   403480 <_init+0x20>

00000000004039a0 <_ZNSaIcEC2ERKS_@plt>:
  4039a0:	ff 25 fa c8 21 00    	jmpq   *0x21c8fa(%rip)        # 6202a0 <_GLOBAL_OFFSET_TABLE_+0x2a0>
  4039a6:	68 51 00 00 00       	pushq  $0x51
  4039ab:	e9 d0 fa ff ff       	jmpq   403480 <_init+0x20>

00000000004039b0 <_ZNKSt15basic_streambufIcSt11char_traitsIcEE5ebackEv@plt>:
  4039b0:	ff 25 f2 c8 21 00    	jmpq   *0x21c8f2(%rip)        # 6202a8 <_GLOBAL_OFFSET_TABLE_+0x2a8>
  4039b6:	68 52 00 00 00       	pushq  $0x52
  4039bb:	e9 c0 fa ff ff       	jmpq   403480 <_init+0x20>

00000000004039c0 <_ZNSt15basic_streambufIcSt11char_traitsIcEE5pbumpEi@plt>:
  4039c0:	ff 25 ea c8 21 00    	jmpq   *0x21c8ea(%rip)        # 6202b0 <_GLOBAL_OFFSET_TABLE_+0x2b0>
  4039c6:	68 53 00 00 00       	pushq  $0x53
  4039cb:	e9 b0 fa ff ff       	jmpq   403480 <_init+0x20>

00000000004039d0 <_ZNSt15basic_streambufIcSt11char_traitsIcEE4setgEPcS3_S3_@plt>:
  4039d0:	ff 25 e2 c8 21 00    	jmpq   *0x21c8e2(%rip)        # 6202b8 <_GLOBAL_OFFSET_TABLE_+0x2b8>
  4039d6:	68 54 00 00 00       	pushq  $0x54
  4039db:	e9 a0 fa ff ff       	jmpq   403480 <_init+0x20>

00000000004039e0 <__cxa_rethrow@plt>:
  4039e0:	ff 25 da c8 21 00    	jmpq   *0x21c8da(%rip)        # 6202c0 <_GLOBAL_OFFSET_TABLE_+0x2c0>
  4039e6:	68 55 00 00 00       	pushq  $0x55
  4039eb:	e9 90 fa ff ff       	jmpq   403480 <_init+0x20>

00000000004039f0 <pthread_mutex_lock@plt>:
  4039f0:	ff 25 d2 c8 21 00    	jmpq   *0x21c8d2(%rip)        # 6202c8 <_GLOBAL_OFFSET_TABLE_+0x2c8>
  4039f6:	68 56 00 00 00       	pushq  $0x56
  4039fb:	e9 80 fa ff ff       	jmpq   403480 <_init+0x20>

0000000000403a00 <_ZNKSt11logic_error4whatEv@plt>:
  403a00:	ff 25 ca c8 21 00    	jmpq   *0x21c8ca(%rip)        # 6202d0 <_GLOBAL_OFFSET_TABLE_+0x2d0>
  403a06:	68 57 00 00 00       	pushq  $0x57
  403a0b:	e9 70 fa ff ff       	jmpq   403480 <_init+0x20>

0000000000403a10 <_ZNSt15basic_streambufIcSt11char_traitsIcEE7seekposESt4fposI11__mbstate_tESt13_Ios_Openmode@plt>:
  403a10:	ff 25 c2 c8 21 00    	jmpq   *0x21c8c2(%rip)        # 6202d8 <_GLOBAL_OFFSET_TABLE_+0x2d8>
  403a16:	68 58 00 00 00       	pushq  $0x58
  403a1b:	e9 60 fa ff ff       	jmpq   403480 <_init+0x20>

0000000000403a20 <pthread_mutex_init@plt>:
  403a20:	ff 25 ba c8 21 00    	jmpq   *0x21c8ba(%rip)        # 6202e0 <_GLOBAL_OFFSET_TABLE_+0x2e0>
  403a26:	68 59 00 00 00       	pushq  $0x59
  403a2b:	e9 50 fa ff ff       	jmpq   403480 <_init+0x20>

0000000000403a30 <_ZNKSt7__cxx1112basic_stringIcSt11char_traitsIcESaIcEE6lengthEv@plt>:
  403a30:	ff 25 b2 c8 21 00    	jmpq   *0x21c8b2(%rip)        # 6202e8 <_GLOBAL_OFFSET_TABLE_+0x2e8>
  403a36:	68 5a 00 00 00       	pushq  $0x5a
  403a3b:	e9 40 fa ff ff       	jmpq   403480 <_init+0x20>

0000000000403a40 <_ZNSt15basic_streambufIcSt11char_traitsIcEE4syncEv@plt>:
  403a40:	ff 25 aa c8 21 00    	jmpq   *0x21c8aa(%rip)        # 6202f0 <_GLOBAL_OFFSET_TABLE_+0x2f0>
  403a46:	68 5b 00 00 00       	pushq  $0x5b
  403a4b:	e9 30 fa ff ff       	jmpq   403480 <_init+0x20>

0000000000403a50 <_ZNSt15basic_streambufIcSt11char_traitsIcEE7seekoffElSt12_Ios_SeekdirSt13_Ios_Openmode@plt>:
  403a50:	ff 25 a2 c8 21 00    	jmpq   *0x21c8a2(%rip)        # 6202f8 <_GLOBAL_OFFSET_TABLE_+0x2f8>
  403a56:	68 5c 00 00 00       	pushq  $0x5c
  403a5b:	e9 20 fa ff ff       	jmpq   403480 <_init+0x20>

0000000000403a60 <poll@plt>:
  403a60:	ff 25 9a c8 21 00    	jmpq   *0x21c89a(%rip)        # 620300 <_GLOBAL_OFFSET_TABLE_+0x300>
  403a66:	68 5d 00 00 00       	pushq  $0x5d
  403a6b:	e9 10 fa ff ff       	jmpq   403480 <_init+0x20>

0000000000403a70 <pthread_cond_wait@plt>:
  403a70:	ff 25 92 c8 21 00    	jmpq   *0x21c892(%rip)        # 620308 <_GLOBAL_OFFSET_TABLE_+0x308>
  403a76:	68 5e 00 00 00       	pushq  $0x5e
  403a7b:	e9 00 fa ff ff       	jmpq   403480 <_init+0x20>

0000000000403a80 <_ZNSt8ios_base4InitC1Ev@plt>:
  403a80:	ff 25 8a c8 21 00    	jmpq   *0x21c88a(%rip)        # 620310 <_GLOBAL_OFFSET_TABLE_+0x310>
  403a86:	68 5f 00 00 00       	pushq  $0x5f
  403a8b:	e9 f0 f9 ff ff       	jmpq   403480 <_init+0x20>

0000000000403a90 <_ZNSt15basic_streambufIcSt11char_traitsIcEE4setpEPcS3_@plt>:
  403a90:	ff 25 82 c8 21 00    	jmpq   *0x21c882(%rip)        # 620318 <_GLOBAL_OFFSET_TABLE_+0x318>
  403a96:	68 60 00 00 00       	pushq  $0x60
  403a9b:	e9 e0 f9 ff ff       	jmpq   403480 <_init+0x20>

0000000000403aa0 <_ZNSoD1Ev@plt>:
  403aa0:	ff 25 7a c8 21 00    	jmpq   *0x21c87a(%rip)        # 620320 <_GLOBAL_OFFSET_TABLE_+0x320>
  403aa6:	68 61 00 00 00       	pushq  $0x61
  403aab:	e9 d0 f9 ff ff       	jmpq   403480 <_init+0x20>

0000000000403ab0 <_ZN5boost6system16generic_categoryEv@plt>:
  403ab0:	ff 25 72 c8 21 00    	jmpq   *0x21c872(%rip)        # 620328 <_GLOBAL_OFFSET_TABLE_+0x328>
  403ab6:	68 62 00 00 00       	pushq  $0x62
  403abb:	e9 c0 f9 ff ff       	jmpq   403480 <_init+0x20>

0000000000403ac0 <_ZNKSt15basic_streambufIcSt11char_traitsIcEE5egptrEv@plt>:
  403ac0:	ff 25 6a c8 21 00    	jmpq   *0x21c86a(%rip)        # 620330 <_GLOBAL_OFFSET_TABLE_+0x330>
  403ac6:	68 63 00 00 00       	pushq  $0x63
  403acb:	e9 b0 f9 ff ff       	jmpq   403480 <_init+0x20>

0000000000403ad0 <memmove@plt>:
  403ad0:	ff 25 62 c8 21 00    	jmpq   *0x21c862(%rip)        # 620338 <_GLOBAL_OFFSET_TABLE_+0x338>
  403ad6:	68 64 00 00 00       	pushq  $0x64
  403adb:	e9 a0 f9 ff ff       	jmpq   403480 <_init+0x20>

0000000000403ae0 <__cxa_end_catch@plt>:
  403ae0:	ff 25 5a c8 21 00    	jmpq   *0x21c85a(%rip)        # 620340 <_GLOBAL_OFFSET_TABLE_+0x340>
  403ae6:	68 65 00 00 00       	pushq  $0x65
  403aeb:	e9 90 f9 ff ff       	jmpq   403480 <_init+0x20>

0000000000403af0 <__gxx_personality_v0@plt>:
  403af0:	ff 25 52 c8 21 00    	jmpq   *0x21c852(%rip)        # 620348 <_GLOBAL_OFFSET_TABLE_+0x348>
  403af6:	68 66 00 00 00       	pushq  $0x66
  403afb:	e9 80 f9 ff ff       	jmpq   403480 <_init+0x20>

0000000000403b00 <__pthread_key_create@plt>:
  403b00:	ff 25 4a c8 21 00    	jmpq   *0x21c84a(%rip)        # 620350 <_GLOBAL_OFFSET_TABLE_+0x350>
  403b06:	68 67 00 00 00       	pushq  $0x67
  403b0b:	e9 70 f9 ff ff       	jmpq   403480 <_init+0x20>

0000000000403b10 <_ZNKSt7__cxx1112basic_stringIcSt11char_traitsIcESaIcEE5emptyEv@plt>:
  403b10:	ff 25 42 c8 21 00    	jmpq   *0x21c842(%rip)        # 620358 <_GLOBAL_OFFSET_TABLE_+0x358>
  403b16:	68 68 00 00 00       	pushq  $0x68
  403b1b:	e9 60 f9 ff ff       	jmpq   403480 <_init+0x20>

0000000000403b20 <_ZNSt11logic_errorC2ERKS_@plt>:
  403b20:	ff 25 3a c8 21 00    	jmpq   *0x21c83a(%rip)        # 620360 <_GLOBAL_OFFSET_TABLE_+0x360>
  403b26:	68 69 00 00 00       	pushq  $0x69
  403b2b:	e9 50 f9 ff ff       	jmpq   403480 <_init+0x20>

0000000000403b30 <_ZNSiD1Ev@plt>:
  403b30:	ff 25 32 c8 21 00    	jmpq   *0x21c832(%rip)        # 620368 <_GLOBAL_OFFSET_TABLE_+0x368>
  403b36:	68 6a 00 00 00       	pushq  $0x6a
  403b3b:	e9 40 f9 ff ff       	jmpq   403480 <_init+0x20>

0000000000403b40 <__cxa_throw@plt>:
  403b40:	ff 25 2a c8 21 00    	jmpq   *0x21c82a(%rip)        # 620370 <_GLOBAL_OFFSET_TABLE_+0x370>
  403b46:	68 6b 00 00 00       	pushq  $0x6b
  403b4b:	e9 30 f9 ff ff       	jmpq   403480 <_init+0x20>

0000000000403b50 <_Unwind_Resume@plt>:
  403b50:	ff 25 22 c8 21 00    	jmpq   *0x21c822(%rip)        # 620378 <_GLOBAL_OFFSET_TABLE_+0x378>
  403b56:	68 6c 00 00 00       	pushq  $0x6c
  403b5b:	e9 20 f9 ff ff       	jmpq   403480 <_init+0x20>

0000000000403b60 <timerfd_create@plt>:
  403b60:	ff 25 1a c8 21 00    	jmpq   *0x21c81a(%rip)        # 620380 <_GLOBAL_OFFSET_TABLE_+0x380>
  403b66:	68 6d 00 00 00       	pushq  $0x6d
  403b6b:	e9 10 f9 ff ff       	jmpq   403480 <_init+0x20>

0000000000403b70 <_ZNSaIcEC1Ev@plt>:
  403b70:	ff 25 12 c8 21 00    	jmpq   *0x21c812(%rip)        # 620388 <_GLOBAL_OFFSET_TABLE_+0x388>
  403b76:	68 6e 00 00 00       	pushq  $0x6e
  403b7b:	e9 00 f9 ff ff       	jmpq   403480 <_init+0x20>

0000000000403b80 <setsockopt@plt>:
  403b80:	ff 25 0a c8 21 00    	jmpq   *0x21c80a(%rip)        # 620390 <_GLOBAL_OFFSET_TABLE_+0x390>
  403b86:	68 6f 00 00 00       	pushq  $0x6f
  403b8b:	e9 f0 f8 ff ff       	jmpq   403480 <_init+0x20>

0000000000403b90 <__cxa_guard_acquire@plt>:
  403b90:	ff 25 02 c8 21 00    	jmpq   *0x21c802(%rip)        # 620398 <_GLOBAL_OFFSET_TABLE_+0x398>
  403b96:	68 70 00 00 00       	pushq  $0x70
  403b9b:	e9 e0 f8 ff ff       	jmpq   403480 <_init+0x20>

0000000000403ba0 <_ZNSt15basic_streambufIcSt11char_traitsIcEE5gbumpEi@plt>:
  403ba0:	ff 25 fa c7 21 00    	jmpq   *0x21c7fa(%rip)        # 6203a0 <_GLOBAL_OFFSET_TABLE_+0x3a0>
  403ba6:	68 71 00 00 00       	pushq  $0x71
  403bab:	e9 d0 f8 ff ff       	jmpq   403480 <_init+0x20>

0000000000403bb0 <__libc_start_main@plt>:
  403bb0:	ff 25 f2 c7 21 00    	jmpq   *0x21c7f2(%rip)        # 6203a8 <_GLOBAL_OFFSET_TABLE_+0x3a8>
  403bb6:	68 72 00 00 00       	pushq  $0x72
  403bbb:	e9 c0 f8 ff ff       	jmpq   403480 <_init+0x20>

0000000000403bc0 <epoll_create@plt>:
  403bc0:	ff 25 ea c7 21 00    	jmpq   *0x21c7ea(%rip)        # 6203b0 <_GLOBAL_OFFSET_TABLE_+0x3b0>
  403bc6:	68 73 00 00 00       	pushq  $0x73
  403bcb:	e9 b0 f8 ff ff       	jmpq   403480 <_init+0x20>

0000000000403bd0 <_ZNKSt7__cxx1112basic_stringIcSt11char_traitsIcESaIcEE3endEv@plt>:
  403bd0:	ff 25 e2 c7 21 00    	jmpq   *0x21c7e2(%rip)        # 6203b8 <_GLOBAL_OFFSET_TABLE_+0x3b8>
  403bd6:	68 74 00 00 00       	pushq  $0x74
  403bdb:	e9 a0 f8 ff ff       	jmpq   403480 <_init+0x20>

0000000000403be0 <_ZNSt13runtime_errorC2EPKc@plt>:
  403be0:	ff 25 da c7 21 00    	jmpq   *0x21c7da(%rip)        # 6203c0 <_GLOBAL_OFFSET_TABLE_+0x3c0>
  403be6:	68 75 00 00 00       	pushq  $0x75
  403beb:	e9 90 f8 ff ff       	jmpq   403480 <_init+0x20>

0000000000403bf0 <_ZNSiC1EPSt15basic_streambufIcSt11char_traitsIcEE@plt>:
  403bf0:	ff 25 d2 c7 21 00    	jmpq   *0x21c7d2(%rip)        # 6203c8 <_GLOBAL_OFFSET_TABLE_+0x3c8>
  403bf6:	68 76 00 00 00       	pushq  $0x76
  403bfb:	e9 80 f8 ff ff       	jmpq   403480 <_init+0x20>

0000000000403c00 <__cxa_pure_virtual@plt>:
  403c00:	ff 25 ca c7 21 00    	jmpq   *0x21c7ca(%rip)        # 6203d0 <_GLOBAL_OFFSET_TABLE_+0x3d0>
  403c06:	68 77 00 00 00       	pushq  $0x77
  403c0b:	e9 70 f8 ff ff       	jmpq   403480 <_init+0x20>

0000000000403c10 <_ZNSt15basic_streambufIcSt11char_traitsIcEE9showmanycEv@plt>:
  403c10:	ff 25 c2 c7 21 00    	jmpq   *0x21c7c2(%rip)        # 6203d8 <_GLOBAL_OFFSET_TABLE_+0x3d8>
  403c16:	68 78 00 00 00       	pushq  $0x78
  403c1b:	e9 60 f8 ff ff       	jmpq   403480 <_init+0x20>

0000000000403c20 <pthread_cond_destroy@plt>:
  403c20:	ff 25 ba c7 21 00    	jmpq   *0x21c7ba(%rip)        # 6203e0 <_GLOBAL_OFFSET_TABLE_+0x3e0>
  403c26:	68 79 00 00 00       	pushq  $0x79
  403c2b:	e9 50 f8 ff ff       	jmpq   403480 <_init+0x20>

0000000000403c30 <close@plt>:
  403c30:	ff 25 b2 c7 21 00    	jmpq   *0x21c7b2(%rip)        # 6203e8 <_GLOBAL_OFFSET_TABLE_+0x3e8>
  403c36:	68 7a 00 00 00       	pushq  $0x7a
  403c3b:	e9 40 f8 ff ff       	jmpq   403480 <_init+0x20>

0000000000403c40 <_ZNSt8ios_base4InitD1Ev@plt>:
  403c40:	ff 25 aa c7 21 00    	jmpq   *0x21c7aa(%rip)        # 6203f0 <_GLOBAL_OFFSET_TABLE_+0x3f0>
  403c46:	68 7b 00 00 00       	pushq  $0x7b
  403c4b:	e9 30 f8 ff ff       	jmpq   403480 <_init+0x20>

0000000000403c50 <_ZNSt15basic_streambufIcSt11char_traitsIcEED2Ev@plt>:
  403c50:	ff 25 a2 c7 21 00    	jmpq   *0x21c7a2(%rip)        # 6203f8 <_GLOBAL_OFFSET_TABLE_+0x3f8>
  403c56:	68 7c 00 00 00       	pushq  $0x7c
  403c5b:	e9 20 f8 ff ff       	jmpq   403480 <_init+0x20>

Disassembly of section .plt.got:

0000000000403c60 <.plt.got>:
  403c60:	ff 25 92 c3 21 00    	jmpq   *0x21c392(%rip)        # 61fff8 <_DYNAMIC+0x210>
  403c66:	66 90                	xchg   %ax,%ax

Disassembly of section .text:

0000000000403c70 <_start>:
  403c70:	31 ed                	xor    %ebp,%ebp
  403c72:	49 89 d1             	mov    %rdx,%r9
  403c75:	5e                   	pop    %rsi
  403c76:	48 89 e2             	mov    %rsp,%rdx
  403c79:	48 83 e4 f0          	and    $0xfffffffffffffff0,%rsp
  403c7d:	50                   	push   %rax
  403c7e:	54                   	push   %rsp
  403c7f:	49 c7 c0 a0 4c 41 00 	mov    $0x414ca0,%r8
  403c86:	48 c7 c1 30 4c 41 00 	mov    $0x414c30,%rcx
  403c8d:	48 c7 c7 7e 3e 40 00 	mov    $0x403e7e,%rdi
  403c94:	e8 17 ff ff ff       	callq  403bb0 <__libc_start_main@plt>
  403c99:	f4                   	hlt    
  403c9a:	66 0f 1f 44 00 00    	nopw   0x0(%rax,%rax,1)

0000000000403ca0 <deregister_tm_clones>:
  403ca0:	b8 2f 04 62 00       	mov    $0x62042f,%eax
  403ca5:	55                   	push   %rbp
  403ca6:	48 2d 28 04 62 00    	sub    $0x620428,%rax
  403cac:	48 83 f8 0e          	cmp    $0xe,%rax
  403cb0:	48 89 e5             	mov    %rsp,%rbp
  403cb3:	76 1b                	jbe    403cd0 <deregister_tm_clones+0x30>
  403cb5:	b8 00 00 00 00       	mov    $0x0,%eax
  403cba:	48 85 c0             	test   %rax,%rax
  403cbd:	74 11                	je     403cd0 <deregister_tm_clones+0x30>
  403cbf:	5d                   	pop    %rbp
  403cc0:	bf 28 04 62 00       	mov    $0x620428,%edi
  403cc5:	ff e0                	jmpq   *%rax
  403cc7:	66 0f 1f 84 00 00 00 	nopw   0x0(%rax,%rax,1)
  403cce:	00 00 
  403cd0:	5d                   	pop    %rbp
  403cd1:	c3                   	retq   
  403cd2:	0f 1f 40 00          	nopl   0x0(%rax)
  403cd6:	66 2e 0f 1f 84 00 00 	nopw   %cs:0x0(%rax,%rax,1)
  403cdd:	00 00 00 

0000000000403ce0 <register_tm_clones>:
  403ce0:	be 28 04 62 00       	mov    $0x620428,%esi
  403ce5:	55                   	push   %rbp
  403ce6:	48 81 ee 28 04 62 00 	sub    $0x620428,%rsi
  403ced:	48 c1 fe 03          	sar    $0x3,%rsi
  403cf1:	48 89 e5             	mov    %rsp,%rbp
  403cf4:	48 89 f0             	mov    %rsi,%rax
  403cf7:	48 c1 e8 3f          	shr    $0x3f,%rax
  403cfb:	48 01 c6             	add    %rax,%rsi
  403cfe:	48 d1 fe             	sar    %rsi
  403d01:	74 15                	je     403d18 <register_tm_clones+0x38>
  403d03:	b8 00 00 00 00       	mov    $0x0,%eax
  403d08:	48 85 c0             	test   %rax,%rax
  403d0b:	74 0b                	je     403d18 <register_tm_clones+0x38>
  403d0d:	5d                   	pop    %rbp
  403d0e:	bf 28 04 62 00       	mov    $0x620428,%edi
  403d13:	ff e0                	jmpq   *%rax
  403d15:	0f 1f 00             	nopl   (%rax)
  403d18:	5d                   	pop    %rbp
  403d19:	c3                   	retq   
  403d1a:	66 0f 1f 44 00 00    	nopw   0x0(%rax,%rax,1)

0000000000403d20 <__do_global_dtors_aux>:
  403d20:	80 3d e1 c9 21 00 00 	cmpb   $0x0,0x21c9e1(%rip)        # 620708 <completed.7594>
  403d27:	75 11                	jne    403d3a <__do_global_dtors_aux+0x1a>
  403d29:	55                   	push   %rbp
  403d2a:	48 89 e5             	mov    %rsp,%rbp
  403d2d:	e8 6e ff ff ff       	callq  403ca0 <deregister_tm_clones>
  403d32:	5d                   	pop    %rbp
  403d33:	c6 05 ce c9 21 00 01 	movb   $0x1,0x21c9ce(%rip)        # 620708 <completed.7594>
  403d3a:	f3 c3                	repz retq 
  403d3c:	0f 1f 40 00          	nopl   0x0(%rax)

0000000000403d40 <frame_dummy>:
  403d40:	bf e0 fd 61 00       	mov    $0x61fde0,%edi
  403d45:	48 83 3f 00          	cmpq   $0x0,(%rdi)
  403d49:	75 05                	jne    403d50 <frame_dummy+0x10>
  403d4b:	eb 93                	jmp    403ce0 <register_tm_clones>
  403d4d:	0f 1f 00             	nopl   (%rax)
  403d50:	b8 00 00 00 00       	mov    $0x0,%eax
  403d55:	48 85 c0             	test   %rax,%rax
  403d58:	74 f1                	je     403d4b <frame_dummy+0xb>
  403d5a:	55                   	push   %rbp
  403d5b:	48 89 e5             	mov    %rsp,%rbp
  403d5e:	ff d0                	callq  *%rax
  403d60:	5d                   	pop    %rbp
  403d61:	e9 7a ff ff ff       	jmpq   403ce0 <register_tm_clones>

0000000000403d66 <_ZL18__gthread_active_pv>:
  403d66:	55                   	push   %rbp
  403d67:	48 89 e5             	mov    %rsp,%rbp
  403d6a:	48 8b 05 57 17 01 00 	mov    0x11757(%rip),%rax        # 4154c8 <_ZZL18__gthread_active_pvE20__gthread_active_ptr>
  403d71:	48 85 c0             	test   %rax,%rax
  403d74:	0f 95 c0             	setne  %al
  403d77:	0f b6 c0             	movzbl %al,%eax
  403d7a:	5d                   	pop    %rbp
  403d7b:	c3                   	retq   

0000000000403d7c <_ZN9__gnu_cxxL18__exchange_and_addEPVii>:
  403d7c:	55                   	push   %rbp
  403d7d:	48 89 e5             	mov    %rsp,%rbp
  403d80:	48 89 7d f8          	mov    %rdi,-0x8(%rbp)
  403d84:	89 75 f4             	mov    %esi,-0xc(%rbp)
  403d87:	8b 55 f4             	mov    -0xc(%rbp),%edx
  403d8a:	48 8b 45 f8          	mov    -0x8(%rbp),%rax
  403d8e:	f0 0f c1 10          	lock xadd %edx,(%rax)
  403d92:	89 d0                	mov    %edx,%eax
  403d94:	5d                   	pop    %rbp
  403d95:	c3                   	retq   

0000000000403d96 <_ZN9__gnu_cxxL12__atomic_addEPVii>:
  403d96:	55                   	push   %rbp
  403d97:	48 89 e5             	mov    %rsp,%rbp
  403d9a:	48 89 7d f8          	mov    %rdi,-0x8(%rbp)
  403d9e:	89 75 f4             	mov    %esi,-0xc(%rbp)
  403da1:	8b 55 f4             	mov    -0xc(%rbp),%edx
  403da4:	48 8b 45 f8          	mov    -0x8(%rbp),%rax
  403da8:	f0 01 10             	lock add %edx,(%rax)
  403dab:	90                   	nop
  403dac:	5d                   	pop    %rbp
  403dad:	c3                   	retq   

0000000000403dae <_ZN9__gnu_cxxL25__exchange_and_add_singleEPii>:
  403dae:	55                   	push   %rbp
  403daf:	48 89 e5             	mov    %rsp,%rbp
  403db2:	48 89 7d e8          	mov    %rdi,-0x18(%rbp)
  403db6:	89 75 e4             	mov    %esi,-0x1c(%rbp)
  403db9:	48 8b 45 e8          	mov    -0x18(%rbp),%rax
  403dbd:	8b 00                	mov    (%rax),%eax
  403dbf:	89 45 fc             	mov    %eax,-0x4(%rbp)
  403dc2:	48 8b 45 e8          	mov    -0x18(%rbp),%rax
  403dc6:	8b 10                	mov    (%rax),%edx
  403dc8:	8b 45 e4             	mov    -0x1c(%rbp),%eax
  403dcb:	01 c2                	add    %eax,%edx
  403dcd:	48 8b 45 e8          	mov    -0x18(%rbp),%rax
  403dd1:	89 10                	mov    %edx,(%rax)
  403dd3:	8b 45 fc             	mov    -0x4(%rbp),%eax
  403dd6:	5d                   	pop    %rbp
  403dd7:	c3                   	retq   

0000000000403dd8 <_ZN9__gnu_cxxL19__atomic_add_singleEPii>:
  403dd8:	55                   	push   %rbp
  403dd9:	48 89 e5             	mov    %rsp,%rbp
  403ddc:	48 89 7d f8          	mov    %rdi,-0x8(%rbp)
  403de0:	89 75 f4             	mov    %esi,-0xc(%rbp)
  403de3:	48 8b 45 f8          	mov    -0x8(%rbp),%rax
  403de7:	8b 10                	mov    (%rax),%edx
  403de9:	8b 45 f4             	mov    -0xc(%rbp),%eax
  403dec:	01 c2                	add    %eax,%edx
  403dee:	48 8b 45 f8          	mov    -0x8(%rbp),%rax
  403df2:	89 10                	mov    %edx,(%rax)
  403df4:	90                   	nop
  403df5:	5d                   	pop    %rbp
  403df6:	c3                   	retq   

0000000000403df7 <_ZN9__gnu_cxxL27__exchange_and_add_dispatchEPii>:
  403df7:	55                   	push   %rbp
  403df8:	48 89 e5             	mov    %rsp,%rbp
  403dfb:	48 83 ec 10          	sub    $0x10,%rsp
  403dff:	48 89 7d f8          	mov    %rdi,-0x8(%rbp)
  403e03:	89 75 f4             	mov    %esi,-0xc(%rbp)
  403e06:	e8 5b ff ff ff       	callq  403d66 <_ZL18__gthread_active_pv>
  403e0b:	85 c0                	test   %eax,%eax
  403e0d:	0f 95 c0             	setne  %al
  403e10:	84 c0                	test   %al,%al
  403e12:	74 13                	je     403e27 <_ZN9__gnu_cxxL27__exchange_and_add_dispatchEPii+0x30>
  403e14:	8b 55 f4             	mov    -0xc(%rbp),%edx
  403e17:	48 8b 45 f8          	mov    -0x8(%rbp),%rax
  403e1b:	89 d6                	mov    %edx,%esi
  403e1d:	48 89 c7             	mov    %rax,%rdi
  403e20:	e8 57 ff ff ff       	callq  403d7c <_ZN9__gnu_cxxL18__exchange_and_addEPVii>
  403e25:	eb 11                	jmp    403e38 <_ZN9__gnu_cxxL27__exchange_and_add_dispatchEPii+0x41>
  403e27:	8b 55 f4             	mov    -0xc(%rbp),%edx
  403e2a:	48 8b 45 f8          	mov    -0x8(%rbp),%rax
  403e2e:	89 d6                	mov    %edx,%esi
  403e30:	48 89 c7             	mov    %rax,%rdi
  403e33:	e8 76 ff ff ff       	callq  403dae <_ZN9__gnu_cxxL25__exchange_and_add_singleEPii>
  403e38:	c9                   	leaveq 
  403e39:	c3                   	retq   

0000000000403e3a <_ZN9__gnu_cxxL21__atomic_add_dispatchEPii>:
  403e3a:	55                   	push   %rbp
  403e3b:	48 89 e5             	mov    %rsp,%rbp
  403e3e:	48 83 ec 10          	sub    $0x10,%rsp
  403e42:	48 89 7d f8          	mov    %rdi,-0x8(%rbp)
  403e46:	89 75 f4             	mov    %esi,-0xc(%rbp)
  403e49:	e8 18 ff ff ff       	callq  403d66 <_ZL18__gthread_active_pv>
  403e4e:	85 c0                	test   %eax,%eax
  403e50:	0f 95 c0             	setne  %al
  403e53:	84 c0                	test   %al,%al
  403e55:	74 13                	je     403e6a <_ZN9__gnu_cxxL21__atomic_add_dispatchEPii+0x30>
  403e57:	8b 55 f4             	mov    -0xc(%rbp),%edx
  403e5a:	48 8b 45 f8          	mov    -0x8(%rbp),%rax
  403e5e:	89 d6                	mov    %edx,%esi
  403e60:	48 89 c7             	mov    %rax,%rdi
  403e63:	e8 2e ff ff ff       	callq  403d96 <_ZN9__gnu_cxxL12__atomic_addEPVii>
  403e68:	eb 11                	jmp    403e7b <_ZN9__gnu_cxxL21__atomic_add_dispatchEPii+0x41>
  403e6a:	8b 55 f4             	mov    -0xc(%rbp),%edx
  403e6d:	48 8b 45 f8          	mov    -0x8(%rbp),%rax
  403e71:	89 d6                	mov    %edx,%esi
  403e73:	48 89 c7             	mov    %rax,%rdi
  403e76:	e8 5d ff ff ff       	callq  403dd8 <_ZN9__gnu_cxxL19__atomic_add_singleEPii>
  403e7b:	90                   	nop
  403e7c:	c9                   	leaveq 
  403e7d:	c3                   	retq   

0000000000403e7e <main>:
  403e7e:	55                   	push   %rbp
  403e7f:	48 89 e5             	mov    %rsp,%rbp
  403e82:	41 55                	push   %r13
  403e84:	41 54                	push   %r12
  403e86:	53                   	push   %rbx
  403e87:	48 81 ec 28 05 00 00 	sub    $0x528,%rsp
  403e8e:	89 bd cc fa ff ff    	mov    %edi,-0x534(%rbp)
  403e94:	48 89 b5 c0 fa ff ff 	mov    %rsi,-0x540(%rbp)
  403e9b:	64 48 8b 04 25 28 00 	mov    %fs:0x28,%rax
  403ea2:	00 00 
  403ea4:	48 89 45 d8          	mov    %rax,-0x28(%rbp)
  403ea8:	31 c0                	xor    %eax,%eax
  403eaa:	83 bd cc fa ff ff 03 	cmpl   $0x3,-0x534(%rbp)
  403eb1:	74 38                	je     403eeb <main+0x6d>
  403eb3:	be 20 4f 41 00       	mov    $0x414f20,%esi
  403eb8:	bf c0 04 62 00       	mov    $0x6204c0,%edi
  403ebd:	e8 de f8 ff ff       	callq  4037a0 <_ZStlsISt11char_traitsIcEERSt13basic_ostreamIcT_ES5_PKc@plt>
  403ec2:	be 44 4f 41 00       	mov    $0x414f44,%esi
  403ec7:	bf c0 04 62 00       	mov    $0x6204c0,%edi
  403ecc:	e8 cf f8 ff ff       	callq  4037a0 <_ZStlsISt11char_traitsIcEERSt13basic_ostreamIcT_ES5_PKc@plt>
  403ed1:	be 50 4f 41 00       	mov    $0x414f50,%esi
  403ed6:	bf c0 04 62 00       	mov    $0x6204c0,%edi
  403edb:	e8 c0 f8 ff ff       	callq  4037a0 <_ZStlsISt11char_traitsIcEERSt13basic_ostreamIcT_ES5_PKc@plt>
  403ee0:	41 bc 01 00 00 00    	mov    $0x1,%r12d
  403ee6:	e9 0d 08 00 00       	jmpq   4046f8 <main+0x87a>
  403eeb:	48 8d 85 e0 fa ff ff 	lea    -0x520(%rbp),%rax
  403ef2:	48 89 c7             	mov    %rax,%rdi
  403ef5:	e8 c4 4b 00 00       	callq  408abe <_ZN5boost4asio10io_serviceC1Ev>
  403efa:	48 8d 95 e0 fa ff ff 	lea    -0x520(%rbp),%rdx
  403f01:	48 8d 85 00 fb ff ff 	lea    -0x500(%rbp),%rax
  403f08:	48 89 d6             	mov    %rdx,%rsi
  403f0b:	48 89 c7             	mov    %rax,%rdi
  403f0e:	e8 67 8c 00 00       	callq  40cb7a <_ZN5boost4asio2ip14basic_resolverINS1_3tcpENS1_16resolver_serviceIS3_EEEC1ERNS0_10io_serviceE>
  403f13:	48 8d 85 e0 fb ff ff 	lea    -0x420(%rbp),%rax
  403f1a:	48 89 c7             	mov    %rax,%rdi
  403f1d:	e8 4e fc ff ff       	callq  403b70 <_ZNSaIcEC1Ev@plt>
  403f22:	48 8d 95 e0 fb ff ff 	lea    -0x420(%rbp),%rdx
  403f29:	48 8d 85 60 fc ff ff 	lea    -0x3a0(%rbp),%rax
  403f30:	be 7e 4f 41 00       	mov    $0x414f7e,%esi
  403f35:	48 89 c7             	mov    %rax,%rdi
  403f38:	e8 03 fa ff ff       	callq  403940 <_ZNSt7__cxx1112basic_stringIcSt11char_traitsIcESaIcEEC1EPKcRKS3_@plt>
  403f3d:	48 8d 85 80 fb ff ff 	lea    -0x480(%rbp),%rax
  403f44:	48 89 c7             	mov    %rax,%rdi
  403f47:	e8 24 fc ff ff       	callq  403b70 <_ZNSaIcEC1Ev@plt>
  403f4c:	48 8b 85 c0 fa ff ff 	mov    -0x540(%rbp),%rax
  403f53:	48 83 c0 08          	add    $0x8,%rax
  403f57:	48 8b 08             	mov    (%rax),%rcx
  403f5a:	48 8d 95 80 fb ff ff 	lea    -0x480(%rbp),%rdx
  403f61:	48 8d 85 40 fc ff ff 	lea    -0x3c0(%rbp),%rax
  403f68:	48 89 ce             	mov    %rcx,%rsi
  403f6b:	48 89 c7             	mov    %rax,%rdi
  403f6e:	e8 cd f9 ff ff       	callq  403940 <_ZNSt7__cxx1112basic_stringIcSt11char_traitsIcESaIcEEC1EPKcRKS3_@plt>
  403f73:	48 8d 95 60 fc ff ff 	lea    -0x3a0(%rbp),%rdx
  403f7a:	48 8d b5 40 fc ff ff 	lea    -0x3c0(%rbp),%rsi
  403f81:	48 8d 85 40 fd ff ff 	lea    -0x2c0(%rbp),%rax
  403f88:	b9 20 00 00 00       	mov    $0x20,%ecx
  403f8d:	48 89 c7             	mov    %rax,%rdi
  403f90:	e8 6d 8c 00 00       	callq  40cc02 <_ZN5boost4asio2ip20basic_resolver_queryINS1_3tcpEEC1ERKNSt7__cxx1112basic_stringIcSt11char_traitsIcESaIcEEESC_NS1_19resolver_query_base5flagsE>
  403f95:	48 8d 85 40 fc ff ff 	lea    -0x3c0(%rbp),%rax
  403f9c:	48 89 c7             	mov    %rax,%rdi
  403f9f:	e8 dc f6 ff ff       	callq  403680 <_ZNSt7__cxx1112basic_stringIcSt11char_traitsIcESaIcEED1Ev@plt>
  403fa4:	48 8d 85 80 fb ff ff 	lea    -0x480(%rbp),%rax
  403fab:	48 89 c7             	mov    %rax,%rdi
  403fae:	e8 3d f8 ff ff       	callq  4037f0 <_ZNSaIcED1Ev@plt>
  403fb3:	48 8d 85 60 fc ff ff 	lea    -0x3a0(%rbp),%rax
  403fba:	48 89 c7             	mov    %rax,%rdi
  403fbd:	e8 be f6 ff ff       	callq  403680 <_ZNSt7__cxx1112basic_stringIcSt11char_traitsIcESaIcEED1Ev@plt>
  403fc2:	48 8d 85 e0 fb ff ff 	lea    -0x420(%rbp),%rax
  403fc9:	48 89 c7             	mov    %rax,%rdi
  403fcc:	e8 1f f8 ff ff       	callq  4037f0 <_ZNSaIcED1Ev@plt>
  403fd1:	48 8d 85 20 fb ff ff 	lea    -0x4e0(%rbp),%rax
  403fd8:	48 8d 95 40 fd ff ff 	lea    -0x2c0(%rbp),%rdx
  403fdf:	48 8d 8d 00 fb ff ff 	lea    -0x500(%rbp),%rcx
  403fe6:	48 89 ce             	mov    %rcx,%rsi
  403fe9:	48 89 c7             	mov    %rax,%rdi
  403fec:	e8 85 8d 00 00       	callq  40cd76 <_ZN5boost4asio2ip14basic_resolverINS1_3tcpENS1_16resolver_serviceIS3_EEE7resolveERKNS1_20basic_resolver_queryIS3_EE>
  403ff1:	48 8d 95 e0 fa ff ff 	lea    -0x520(%rbp),%rdx
  403ff8:	48 8d 85 60 fb ff ff 	lea    -0x4a0(%rbp),%rax
  403fff:	48 89 d6             	mov    %rdx,%rsi
  404002:	48 89 c7             	mov    %rax,%rdi
  404005:	e8 80 8e 00 00       	callq  40ce8a <_ZN5boost4asio19basic_stream_socketINS0_2ip3tcpENS0_21stream_socket_serviceIS3_EEEC1ERNS0_10io_serviceE>
  40400a:	48 8d 95 20 fb ff ff 	lea    -0x4e0(%rbp),%rdx
  404011:	48 8d 85 e0 fb ff ff 	lea    -0x420(%rbp),%rax
  404018:	48 89 d6             	mov    %rdx,%rsi
  40401b:	48 89 c7             	mov    %rax,%rdi
  40401e:	e8 21 73 00 00       	callq  40b344 <_ZN5boost4asio2ip23basic_resolver_iteratorINS1_3tcpEEC1ERKS4_>
  404023:	48 8d 85 40 fb ff ff 	lea    -0x4c0(%rbp),%rax
  40402a:	48 8d 95 e0 fb ff ff 	lea    -0x420(%rbp),%rdx
  404031:	48 8d 8d 60 fb ff ff 	lea    -0x4a0(%rbp),%rcx
  404038:	48 89 ce             	mov    %rcx,%rsi
  40403b:	48 89 c7             	mov    %rax,%rdi
  40403e:	e8 d1 8e 00 00       	callq  40cf14 <_ZN5boost4asio7connectINS0_2ip3tcpENS0_21stream_socket_serviceIS3_EENS2_23basic_resolver_iteratorIS3_EEEET1_RNS0_12basic_socketIT_T0_EES8_>
  404043:	48 8d 85 40 fb ff ff 	lea    -0x4c0(%rbp),%rax
  40404a:	48 89 c7             	mov    %rax,%rdi
  40404d:	e8 22 72 00 00       	callq  40b274 <_ZN5boost4asio2ip23basic_resolver_iteratorINS1_3tcpEED1Ev>
  404052:	48 8d 85 e0 fb ff ff 	lea    -0x420(%rbp),%rax
  404059:	48 89 c7             	mov    %rax,%rdi
  40405c:	e8 13 72 00 00       	callq  40b274 <_ZN5boost4asio2ip23basic_resolver_iteratorINS1_3tcpEED1Ev>
  404061:	48 8d 85 e0 fb ff ff 	lea    -0x420(%rbp),%rax
  404068:	48 89 c7             	mov    %rax,%rdi
  40406b:	e8 00 fb ff ff       	callq  403b70 <_ZNSaIcEC1Ev@plt>
  404070:	e8 8d 24 00 00       	callq  406502 <_ZNSt14numeric_limitsImE3maxEv>
  404075:	48 89 c1             	mov    %rax,%rcx
  404078:	48 8d 95 e0 fb ff ff 	lea    -0x420(%rbp),%rdx
  40407f:	48 8d 85 80 fb ff ff 	lea    -0x480(%rbp),%rax
  404086:	48 89 ce             	mov    %rcx,%rsi
  404089:	48 89 c7             	mov    %rax,%rdi
  40408c:	e8 51 8f 00 00       	callq  40cfe2 <_ZN5boost4asio15basic_streambufISaIcEEC1EmRKS2_>
  404091:	48 8d 85 e0 fb ff ff 	lea    -0x420(%rbp),%rax
  404098:	48 89 c7             	mov    %rax,%rdi
  40409b:	e8 50 f7 ff ff       	callq  4037f0 <_ZNSaIcED1Ev@plt>
  4040a0:	48 8d 95 80 fb ff ff 	lea    -0x480(%rbp),%rdx
  4040a7:	48 8d 85 b0 fd ff ff 	lea    -0x250(%rbp),%rax
  4040ae:	48 89 d6             	mov    %rdx,%rsi
  4040b1:	48 89 c7             	mov    %rax,%rdi
  4040b4:	e8 f7 f4 ff ff       	callq  4035b0 <_ZNSoC1EPSt15basic_streambufIcSt11char_traitsIcEE@plt>
  4040b9:	48 8b 85 c0 fa ff ff 	mov    -0x540(%rbp),%rax
  4040c0:	48 83 c0 10          	add    $0x10,%rax
  4040c4:	48 8b 18             	mov    (%rax),%rbx
  4040c7:	48 8d 85 b0 fd ff ff 	lea    -0x250(%rbp),%rax
  4040ce:	be 83 4f 41 00       	mov    $0x414f83,%esi
  4040d3:	48 89 c7             	mov    %rax,%rdi
  4040d6:	e8 c5 f6 ff ff       	callq  4037a0 <_ZStlsISt11char_traitsIcEERSt13basic_ostreamIcT_ES5_PKc@plt>
  4040db:	48 89 de             	mov    %rbx,%rsi
  4040de:	48 89 c7             	mov    %rax,%rdi
  4040e1:	e8 ba f6 ff ff       	callq  4037a0 <_ZStlsISt11char_traitsIcEERSt13basic_ostreamIcT_ES5_PKc@plt>
  4040e6:	be 88 4f 41 00       	mov    $0x414f88,%esi
  4040eb:	48 89 c7             	mov    %rax,%rdi
  4040ee:	e8 ad f6 ff ff       	callq  4037a0 <_ZStlsISt11char_traitsIcEERSt13basic_ostreamIcT_ES5_PKc@plt>
  4040f3:	48 8b 85 c0 fa ff ff 	mov    -0x540(%rbp),%rax
  4040fa:	48 83 c0 08          	add    $0x8,%rax
  4040fe:	48 8b 18             	mov    (%rax),%rbx
  404101:	48 8d 85 b0 fd ff ff 	lea    -0x250(%rbp),%rax
  404108:	be 94 4f 41 00       	mov    $0x414f94,%esi
  40410d:	48 89 c7             	mov    %rax,%rdi
  404110:	e8 8b f6 ff ff       	callq  4037a0 <_ZStlsISt11char_traitsIcEERSt13basic_ostreamIcT_ES5_PKc@plt>
  404115:	48 89 de             	mov    %rbx,%rsi
  404118:	48 89 c7             	mov    %rax,%rdi
  40411b:	e8 80 f6 ff ff       	callq  4037a0 <_ZStlsISt11char_traitsIcEERSt13basic_ostreamIcT_ES5_PKc@plt>
  404120:	be 9b 4f 41 00       	mov    $0x414f9b,%esi
  404125:	48 89 c7             	mov    %rax,%rdi
  404128:	e8 73 f6 ff ff       	callq  4037a0 <_ZStlsISt11char_traitsIcEERSt13basic_ostreamIcT_ES5_PKc@plt>
  40412d:	48 8d 85 b0 fd ff ff 	lea    -0x250(%rbp),%rax
  404134:	be 9e 4f 41 00       	mov    $0x414f9e,%esi
  404139:	48 89 c7             	mov    %rax,%rdi
  40413c:	e8 5f f6 ff ff       	callq  4037a0 <_ZStlsISt11char_traitsIcEERSt13basic_ostreamIcT_ES5_PKc@plt>
  404141:	48 8d 85 b0 fd ff ff 	lea    -0x250(%rbp),%rax
  404148:	be ac 4f 41 00       	mov    $0x414fac,%esi
  40414d:	48 89 c7             	mov    %rax,%rdi
  404150:	e8 4b f6 ff ff       	callq  4037a0 <_ZStlsISt11char_traitsIcEERSt13basic_ostreamIcT_ES5_PKc@plt>
  404155:	48 8d 95 80 fb ff ff 	lea    -0x480(%rbp),%rdx
  40415c:	48 8d 85 60 fb ff ff 	lea    -0x4a0(%rbp),%rax
  404163:	48 89 d6             	mov    %rdx,%rsi
  404166:	48 89 c7             	mov    %rax,%rdi
  404169:	e8 31 90 00 00       	callq  40d19f <_ZN5boost4asio5writeINS0_19basic_stream_socketINS0_2ip3tcpENS0_21stream_socket_serviceIS4_EEEESaIcEEEmRT_RNS0_15basic_streambufIT0_EE>
  40416e:	48 8d 85 40 fb ff ff 	lea    -0x4c0(%rbp),%rax
  404175:	48 89 c7             	mov    %rax,%rdi
  404178:	e8 f3 f9 ff ff       	callq  403b70 <_ZNSaIcEC1Ev@plt>
  40417d:	e8 80 23 00 00       	callq  406502 <_ZNSt14numeric_limitsImE3maxEv>
  404182:	48 89 c1             	mov    %rax,%rcx
  404185:	48 8d 95 40 fb ff ff 	lea    -0x4c0(%rbp),%rdx
  40418c:	48 8d 85 e0 fb ff ff 	lea    -0x420(%rbp),%rax
  404193:	48 89 ce             	mov    %rcx,%rsi
  404196:	48 89 c7             	mov    %rax,%rdi
  404199:	e8 44 8e 00 00       	callq  40cfe2 <_ZN5boost4asio15basic_streambufISaIcEEC1EmRKS2_>
  40419e:	48 8d 85 40 fb ff ff 	lea    -0x4c0(%rbp),%rax
  4041a5:	48 89 c7             	mov    %rax,%rdi
  4041a8:	e8 43 f6 ff ff       	callq  4037f0 <_ZNSaIcED1Ev@plt>
  4041ad:	48 8d 85 40 fb ff ff 	lea    -0x4c0(%rbp),%rax
  4041b4:	48 89 c7             	mov    %rax,%rdi
  4041b7:	e8 b4 f9 ff ff       	callq  403b70 <_ZNSaIcEC1Ev@plt>
  4041bc:	48 8d 95 40 fb ff ff 	lea    -0x4c0(%rbp),%rdx
  4041c3:	48 8d 85 80 fc ff ff 	lea    -0x380(%rbp),%rax
  4041ca:	be 9b 4f 41 00       	mov    $0x414f9b,%esi
  4041cf:	48 89 c7             	mov    %rax,%rdi
  4041d2:	e8 69 f7 ff ff       	callq  403940 <_ZNSt7__cxx1112basic_stringIcSt11char_traitsIcESaIcEEC1EPKcRKS3_@plt>
  4041d7:	48 8d 95 80 fc ff ff 	lea    -0x380(%rbp),%rdx
  4041de:	48 8d 8d e0 fb ff ff 	lea    -0x420(%rbp),%rcx
  4041e5:	48 8d 85 60 fb ff ff 	lea    -0x4a0(%rbp),%rax
  4041ec:	48 89 ce             	mov    %rcx,%rsi
  4041ef:	48 89 c7             	mov    %rax,%rdi
  4041f2:	e8 2c 90 00 00       	callq  40d223 <_ZN5boost4asio10read_untilINS0_19basic_stream_socketINS0_2ip3tcpENS0_21stream_socket_serviceIS4_EEEESaIcEEEmRT_RNS0_15basic_streambufIT0_EERKNSt7__cxx1112basic_stringIcSt11char_traitsIcES8_EE>
  4041f7:	48 8d 85 80 fc ff ff 	lea    -0x380(%rbp),%rax
  4041fe:	48 89 c7             	mov    %rax,%rdi
  404201:	e8 7a f4 ff ff       	callq  403680 <_ZNSt7__cxx1112basic_stringIcSt11char_traitsIcESaIcEED1Ev@plt>
  404206:	48 8d 85 40 fb ff ff 	lea    -0x4c0(%rbp),%rax
  40420d:	48 89 c7             	mov    %rax,%rdi
  404210:	e8 db f5 ff ff       	callq  4037f0 <_ZNSaIcED1Ev@plt>
  404215:	48 8d 95 e0 fb ff ff 	lea    -0x420(%rbp),%rdx
  40421c:	48 8d 85 c0 fe ff ff 	lea    -0x140(%rbp),%rax
  404223:	48 89 d6             	mov    %rdx,%rsi
  404226:	48 89 c7             	mov    %rax,%rdi
  404229:	e8 c2 f9 ff ff       	callq  403bf0 <_ZNSiC1EPSt15basic_streambufIcSt11char_traitsIcEE@plt>
  40422e:	48 8d 85 a0 fc ff ff 	lea    -0x360(%rbp),%rax
  404235:	48 89 c7             	mov    %rax,%rdi
  404238:	e8 33 f7 ff ff       	callq  403970 <_ZNSt7__cxx1112basic_stringIcSt11char_traitsIcESaIcEEC1Ev@plt>
  40423d:	48 8d 95 a0 fc ff ff 	lea    -0x360(%rbp),%rdx
  404244:	48 8d 85 c0 fe ff ff 	lea    -0x140(%rbp),%rax
  40424b:	48 89 d6             	mov    %rdx,%rsi
  40424e:	48 89 c7             	mov    %rax,%rdi
  404251:	e8 4a f6 ff ff       	callq  4038a0 <_ZStrsIcSt11char_traitsIcESaIcEERSt13basic_istreamIT_T0_ES7_RNSt7__cxx1112basic_stringIS4_S5_T1_EE@plt>
  404256:	48 8d 95 d4 fa ff ff 	lea    -0x52c(%rbp),%rdx
  40425d:	48 8d 85 c0 fe ff ff 	lea    -0x140(%rbp),%rax
  404264:	48 89 d6             	mov    %rdx,%rsi
  404267:	48 89 c7             	mov    %rax,%rdi
  40426a:	e8 41 f2 ff ff       	callq  4034b0 <_ZNSirsERj@plt>
  40426f:	48 8d 85 c0 fc ff ff 	lea    -0x340(%rbp),%rax
  404276:	48 89 c7             	mov    %rax,%rdi
  404279:	e8 f2 f6 ff ff       	callq  403970 <_ZNSt7__cxx1112basic_stringIcSt11char_traitsIcESaIcEEC1Ev@plt>
  40427e:	48 8d 95 c0 fc ff ff 	lea    -0x340(%rbp),%rdx
  404285:	48 8d 85 c0 fe ff ff 	lea    -0x140(%rbp),%rax
  40428c:	48 89 d6             	mov    %rdx,%rsi
  40428f:	48 89 c7             	mov    %rax,%rdi
  404292:	e8 39 f2 ff ff       	callq  4034d0 <_ZSt7getlineIcSt11char_traitsIcESaIcEERSt13basic_istreamIT_T0_ES7_RNSt7__cxx1112basic_stringIS4_S5_T1_EE@plt>
  404297:	bb 00 00 00 00       	mov    $0x0,%ebx
  40429c:	48 8d 85 c0 fe ff ff 	lea    -0x140(%rbp),%rax
  4042a3:	48 83 c0 10          	add    $0x10,%rax
  4042a7:	48 89 c7             	mov    %rax,%rdi
  4042aa:	e8 41 f3 ff ff       	callq  4035f0 <_ZNKSt9basic_iosIcSt11char_traitsIcEEntEv@plt>
  4042af:	84 c0                	test   %al,%al
  4042b1:	75 3d                	jne    4042f0 <main+0x472>
  4042b3:	48 8d 85 e0 fc ff ff 	lea    -0x320(%rbp),%rax
  4042ba:	48 8d b5 a0 fc ff ff 	lea    -0x360(%rbp),%rsi
  4042c1:	b9 05 00 00 00       	mov    $0x5,%ecx
  4042c6:	ba 00 00 00 00       	mov    $0x0,%edx
  4042cb:	48 89 c7             	mov    %rax,%rdi
  4042ce:	e8 fd f4 ff ff       	callq  4037d0 <_ZNKSt7__cxx1112basic_stringIcSt11char_traitsIcESaIcEE6substrEmm@plt>
  4042d3:	bb 01 00 00 00       	mov    $0x1,%ebx
  4042d8:	48 8d 85 e0 fc ff ff 	lea    -0x320(%rbp),%rax
  4042df:	be c2 4f 41 00       	mov    $0x414fc2,%esi
  4042e4:	48 89 c7             	mov    %rax,%rdi
  4042e7:	e8 ad 8f 00 00       	callq  40d299 <_ZStneIcSt11char_traitsIcESaIcEEbRKNSt7__cxx1112basic_stringIT_T0_T1_EEPKS5_>
  4042ec:	84 c0                	test   %al,%al
  4042ee:	74 08                	je     4042f8 <main+0x47a>
  4042f0:	41 bd 01 00 00 00    	mov    $0x1,%r13d
  4042f6:	eb 06                	jmp    4042fe <main+0x480>
  4042f8:	41 bd 00 00 00 00    	mov    $0x0,%r13d
  4042fe:	84 db                	test   %bl,%bl
  404300:	74 10                	je     404312 <main+0x494>
  404302:	90                   	nop
  404303:	48 8d 85 e0 fc ff ff 	lea    -0x320(%rbp),%rax
  40430a:	48 89 c7             	mov    %rax,%rdi
  40430d:	e8 6e f3 ff ff       	callq  403680 <_ZNSt7__cxx1112basic_stringIcSt11char_traitsIcESaIcEED1Ev@plt>
  404312:	45 84 ed             	test   %r13b,%r13b
  404315:	74 1f                	je     404336 <main+0x4b8>
  404317:	be c8 4f 41 00       	mov    $0x414fc8,%esi
  40431c:	bf c0 04 62 00       	mov    $0x6204c0,%edi
  404321:	e8 7a f4 ff ff       	callq  4037a0 <_ZStlsISt11char_traitsIcEERSt13basic_ostreamIcT_ES5_PKc@plt>
  404326:	41 bc 01 00 00 00    	mov    $0x1,%r12d
  40432c:	bb 00 00 00 00       	mov    $0x0,%ebx
  404331:	e9 5b 02 00 00       	jmpq   404591 <main+0x713>
  404336:	8b 85 d4 fa ff ff    	mov    -0x52c(%rbp),%eax
  40433c:	3d c8 00 00 00       	cmp    $0xc8,%eax
  404341:	74 3c                	je     40437f <main+0x501>
  404343:	8b 9d d4 fa ff ff    	mov    -0x52c(%rbp),%ebx
  404349:	be e0 4f 41 00       	mov    $0x414fe0,%esi
  40434e:	bf c0 04 62 00       	mov    $0x6204c0,%edi
  404353:	e8 48 f4 ff ff       	callq  4037a0 <_ZStlsISt11char_traitsIcEERSt13basic_ostreamIcT_ES5_PKc@plt>
  404358:	89 de                	mov    %ebx,%esi
  40435a:	48 89 c7             	mov    %rax,%rdi
  40435d:	e8 ae f5 ff ff       	callq  403910 <_ZNSolsEj@plt>
  404362:	be 04 50 41 00       	mov    $0x415004,%esi
  404367:	48 89 c7             	mov    %rax,%rdi
  40436a:	e8 31 f4 ff ff       	callq  4037a0 <_ZStlsISt11char_traitsIcEERSt13basic_ostreamIcT_ES5_PKc@plt>
  40436f:	41 bc 01 00 00 00    	mov    $0x1,%r12d
  404375:	bb 00 00 00 00       	mov    $0x0,%ebx
  40437a:	e9 12 02 00 00       	jmpq   404591 <main+0x713>
  40437f:	48 8d 85 40 fb ff ff 	lea    -0x4c0(%rbp),%rax
  404386:	48 89 c7             	mov    %rax,%rdi
  404389:	e8 e2 f7 ff ff       	callq  403b70 <_ZNSaIcEC1Ev@plt>
  40438e:	48 8d 95 40 fb ff ff 	lea    -0x4c0(%rbp),%rdx
  404395:	48 8d 85 00 fd ff ff 	lea    -0x300(%rbp),%rax
  40439c:	be 06 50 41 00       	mov    $0x415006,%esi
  4043a1:	48 89 c7             	mov    %rax,%rdi
  4043a4:	e8 97 f5 ff ff       	callq  403940 <_ZNSt7__cxx1112basic_stringIcSt11char_traitsIcESaIcEEC1EPKcRKS3_@plt>
  4043a9:	48 8d 95 00 fd ff ff 	lea    -0x300(%rbp),%rdx
  4043b0:	48 8d 8d e0 fb ff ff 	lea    -0x420(%rbp),%rcx
  4043b7:	48 8d 85 60 fb ff ff 	lea    -0x4a0(%rbp),%rax
  4043be:	48 89 ce             	mov    %rcx,%rsi
  4043c1:	48 89 c7             	mov    %rax,%rdi
  4043c4:	e8 5a 8e 00 00       	callq  40d223 <_ZN5boost4asio10read_untilINS0_19basic_stream_socketINS0_2ip3tcpENS0_21stream_socket_serviceIS4_EEEESaIcEEEmRT_RNS0_15basic_streambufIT0_EERKNSt7__cxx1112basic_stringIcSt11char_traitsIcES8_EE>
  4043c9:	48 8d 85 00 fd ff ff 	lea    -0x300(%rbp),%rax
  4043d0:	48 89 c7             	mov    %rax,%rdi
  4043d3:	e8 a8 f2 ff ff       	callq  403680 <_ZNSt7__cxx1112basic_stringIcSt11char_traitsIcESaIcEED1Ev@plt>
  4043d8:	48 8d 85 40 fb ff ff 	lea    -0x4c0(%rbp),%rax
  4043df:	48 89 c7             	mov    %rax,%rdi
  4043e2:	e8 09 f4 ff ff       	callq  4037f0 <_ZNSaIcED1Ev@plt>
  4043e7:	48 8d 85 20 fd ff ff 	lea    -0x2e0(%rbp),%rax
  4043ee:	48 89 c7             	mov    %rax,%rdi
  4043f1:	e8 7a f5 ff ff       	callq  403970 <_ZNSt7__cxx1112basic_stringIcSt11char_traitsIcESaIcEEC1Ev@plt>
  4043f6:	48 8d 95 20 fd ff ff 	lea    -0x2e0(%rbp),%rdx
  4043fd:	48 8d 85 c0 fe ff ff 	lea    -0x140(%rbp),%rax
  404404:	48 89 d6             	mov    %rdx,%rsi
  404407:	48 89 c7             	mov    %rax,%rdi
  40440a:	e8 c1 f0 ff ff       	callq  4034d0 <_ZSt7getlineIcSt11char_traitsIcESaIcEERSt13basic_istreamIT_T0_ES7_RNSt7__cxx1112basic_stringIS4_S5_T1_EE@plt>
  40440f:	48 8b 10             	mov    (%rax),%rdx
  404412:	48 83 ea 18          	sub    $0x18,%rdx
  404416:	48 8b 12             	mov    (%rdx),%rdx
  404419:	48 01 d0             	add    %rdx,%rax
  40441c:	48 89 c7             	mov    %rax,%rdi
  40441f:	e8 6c f4 ff ff       	callq  403890 <_ZNKSt9basic_iosIcSt11char_traitsIcEEcvbEv@plt>
  404424:	84 c0                	test   %al,%al
  404426:	74 1f                	je     404447 <main+0x5c9>
  404428:	48 8d 85 20 fd ff ff 	lea    -0x2e0(%rbp),%rax
  40442f:	be 0b 50 41 00       	mov    $0x41500b,%esi
  404434:	48 89 c7             	mov    %rax,%rdi
  404437:	e8 5d 8e 00 00       	callq  40d299 <_ZStneIcSt11char_traitsIcESaIcEEbRKNSt7__cxx1112basic_stringIT_T0_T1_EEPKS5_>
  40443c:	84 c0                	test   %al,%al
  40443e:	74 07                	je     404447 <main+0x5c9>
  404440:	b8 01 00 00 00       	mov    $0x1,%eax
  404445:	eb 05                	jmp    40444c <main+0x5ce>
  404447:	b8 00 00 00 00       	mov    $0x0,%eax
  40444c:	84 c0                	test   %al,%al
  40444e:	74 23                	je     404473 <main+0x5f5>
  404450:	48 8d 85 20 fd ff ff 	lea    -0x2e0(%rbp),%rax
  404457:	48 89 c6             	mov    %rax,%rsi
  40445a:	bf c0 04 62 00       	mov    $0x6204c0,%edi
  40445f:	e8 dc f2 ff ff       	callq  403740 <_ZStlsIcSt11char_traitsIcESaIcEERSt13basic_ostreamIT_T0_ES7_RKNSt7__cxx1112basic_stringIS4_S5_T1_EE@plt>
  404464:	be 04 50 41 00       	mov    $0x415004,%esi
  404469:	48 89 c7             	mov    %rax,%rdi
  40446c:	e8 2f f3 ff ff       	callq  4037a0 <_ZStlsISt11char_traitsIcEERSt13basic_ostreamIcT_ES5_PKc@plt>
  404471:	eb 83                	jmp    4043f6 <main+0x578>
  404473:	be 04 50 41 00       	mov    $0x415004,%esi
  404478:	bf c0 04 62 00       	mov    $0x6204c0,%edi
  40447d:	e8 1e f3 ff ff       	callq  4037a0 <_ZStlsISt11char_traitsIcEERSt13basic_ostreamIcT_ES5_PKc@plt>
  404482:	48 8d 85 e0 fb ff ff 	lea    -0x420(%rbp),%rax
  404489:	48 89 c7             	mov    %rax,%rdi
  40448c:	e8 31 8e 00 00       	callq  40d2c2 <_ZNK5boost4asio15basic_streambufISaIcEE4sizeEv>
  404491:	48 85 c0             	test   %rax,%rax
  404494:	0f 95 c0             	setne  %al
  404497:	84 c0                	test   %al,%al
  404499:	74 14                	je     4044af <main+0x631>
  40449b:	48 8d 85 e0 fb ff ff 	lea    -0x420(%rbp),%rax
  4044a2:	48 89 c6             	mov    %rax,%rsi
  4044a5:	bf c0 04 62 00       	mov    $0x6204c0,%edi
  4044aa:	e8 31 f0 ff ff       	callq  4034e0 <_ZNSolsEPSt15basic_streambufIcSt11char_traitsIcEE@plt>
  4044af:	48 8d 85 f0 fa ff ff 	lea    -0x510(%rbp),%rax
  4044b6:	48 89 c7             	mov    %rax,%rdi
  4044b9:	e8 92 09 00 00       	callq  404e50 <_ZN5boost6system10error_codeC1Ev>
  4044be:	bf 01 00 00 00       	mov    $0x1,%edi
  4044c3:	e8 34 64 00 00       	callq  40a8fc <_ZN5boost4asio17transfer_at_leastEm>
  4044c8:	48 89 c7             	mov    %rax,%rdi
  4044cb:	48 8d 95 f0 fa ff ff 	lea    -0x510(%rbp),%rdx
  4044d2:	48 8d b5 e0 fb ff ff 	lea    -0x420(%rbp),%rsi
  4044d9:	48 8d 85 60 fb ff ff 	lea    -0x4a0(%rbp),%rax
  4044e0:	48 89 d1             	mov    %rdx,%rcx
  4044e3:	48 89 fa             	mov    %rdi,%rdx
  4044e6:	48 89 c7             	mov    %rax,%rdi
  4044e9:	e8 09 8e 00 00       	callq  40d2f7 <_ZN5boost4asio4readINS0_19basic_stream_socketINS0_2ip3tcpENS0_21stream_socket_serviceIS4_EEEESaIcENS0_6detail19transfer_at_least_tEEEmRT_RNS0_15basic_streambufIT0_EET1_RNS_6system10error_codeE>
  4044ee:	48 85 c0             	test   %rax,%rax
  4044f1:	0f 95 c0             	setne  %al
  4044f4:	84 c0                	test   %al,%al
  4044f6:	74 16                	je     40450e <main+0x690>
  4044f8:	48 8d 85 e0 fb ff ff 	lea    -0x420(%rbp),%rax
  4044ff:	48 89 c6             	mov    %rax,%rsi
  404502:	bf c0 04 62 00       	mov    $0x6204c0,%edi
  404507:	e8 d4 ef ff ff       	callq  4034e0 <_ZNSolsEPSt15basic_streambufIcSt11char_traitsIcEE@plt>
  40450c:	eb b0                	jmp    4044be <main+0x640>
  40450e:	48 8d 85 40 fb ff ff 	lea    -0x4c0(%rbp),%rax
  404515:	ba 00 00 00 00       	mov    $0x0,%edx
  40451a:	be 02 00 00 00       	mov    $0x2,%esi
  40451f:	48 89 c7             	mov    %rax,%rdi
  404522:	e8 0d 8f 00 00       	callq  40d434 <_ZN5boost6system10error_codeC1INS_4asio5error11misc_errorsEEET_PNS_9enable_ifINS0_18is_error_code_enumIS6_EEvE4typeE>
  404527:	48 8d 95 40 fb ff ff 	lea    -0x4c0(%rbp),%rdx
  40452e:	48 8d 85 f0 fa ff ff 	lea    -0x510(%rbp),%rax
  404535:	48 89 d6             	mov    %rdx,%rsi
  404538:	48 89 c7             	mov    %rax,%rdi
  40453b:	e8 72 0a 00 00       	callq  404fb2 <_ZN5boost6systemneERKNS0_10error_codeES3_>
  404540:	84 c0                	test   %al,%al
  404542:	74 39                	je     40457d <main+0x6ff>
  404544:	bf 40 00 00 00       	mov    $0x40,%edi
  404549:	e8 c2 f0 ff ff       	callq  403610 <__cxa_allocate_exception@plt>
  40454e:	48 89 c3             	mov    %rax,%rbx
  404551:	8b 95 f0 fa ff ff    	mov    -0x510(%rbp),%edx
  404557:	48 8b 85 f8 fa ff ff 	mov    -0x508(%rbp),%rax
  40455e:	89 d6                	mov    %edx,%esi
  404560:	48 89 c2             	mov    %rax,%rdx
  404563:	48 89 df             	mov    %rbx,%rdi
  404566:	e8 d5 0e 00 00       	callq  405440 <_ZN5boost6system12system_errorC1ENS0_10error_codeE>
  40456b:	ba 06 55 40 00       	mov    $0x405506,%edx
  404570:	be d0 67 41 00       	mov    $0x4167d0,%esi
  404575:	48 89 df             	mov    %rbx,%rdi
  404578:	e8 c3 f5 ff ff       	callq  403b40 <__cxa_throw@plt>
  40457d:	48 8d 85 20 fd ff ff 	lea    -0x2e0(%rbp),%rax
  404584:	48 89 c7             	mov    %rax,%rdi
  404587:	e8 f4 f0 ff ff       	callq  403680 <_ZNSt7__cxx1112basic_stringIcSt11char_traitsIcESaIcEED1Ev@plt>
  40458c:	bb 01 00 00 00       	mov    $0x1,%ebx
  404591:	48 8d 85 c0 fc ff ff 	lea    -0x340(%rbp),%rax
  404598:	48 89 c7             	mov    %rax,%rdi
  40459b:	e8 e0 f0 ff ff       	callq  403680 <_ZNSt7__cxx1112basic_stringIcSt11char_traitsIcESaIcEED1Ev@plt>
  4045a0:	83 fb 01             	cmp    $0x1,%ebx
  4045a3:	74 07                	je     4045ac <main+0x72e>
  4045a5:	bb 00 00 00 00       	mov    $0x0,%ebx
  4045aa:	eb 06                	jmp    4045b2 <main+0x734>
  4045ac:	90                   	nop
  4045ad:	bb 01 00 00 00       	mov    $0x1,%ebx
  4045b2:	48 8d 85 a0 fc ff ff 	lea    -0x360(%rbp),%rax
  4045b9:	48 89 c7             	mov    %rax,%rdi
  4045bc:	e8 bf f0 ff ff       	callq  403680 <_ZNSt7__cxx1112basic_stringIcSt11char_traitsIcESaIcEED1Ev@plt>
  4045c1:	83 fb 01             	cmp    $0x1,%ebx
  4045c4:	74 07                	je     4045cd <main+0x74f>
  4045c6:	bb 00 00 00 00       	mov    $0x0,%ebx
  4045cb:	eb 06                	jmp    4045d3 <main+0x755>
  4045cd:	90                   	nop
  4045ce:	bb 01 00 00 00       	mov    $0x1,%ebx
  4045d3:	48 8d 85 c0 fe ff ff 	lea    -0x140(%rbp),%rax
  4045da:	48 89 c7             	mov    %rax,%rdi
  4045dd:	e8 4e f5 ff ff       	callq  403b30 <_ZNSiD1Ev@plt>
  4045e2:	83 fb 01             	cmp    $0x1,%ebx
  4045e5:	74 07                	je     4045ee <main+0x770>
  4045e7:	bb 00 00 00 00       	mov    $0x0,%ebx
  4045ec:	eb 06                	jmp    4045f4 <main+0x776>
  4045ee:	90                   	nop
  4045ef:	bb 01 00 00 00       	mov    $0x1,%ebx
  4045f4:	48 8d 85 e0 fb ff ff 	lea    -0x420(%rbp),%rax
  4045fb:	48 89 c7             	mov    %rax,%rdi
  4045fe:	e8 43 fa 00 00       	callq  414046 <_ZN5boost4asio15basic_streambufISaIcEED1Ev>
  404603:	83 fb 01             	cmp    $0x1,%ebx
  404606:	74 07                	je     40460f <main+0x791>
  404608:	bb 00 00 00 00       	mov    $0x0,%ebx
  40460d:	eb 06                	jmp    404615 <main+0x797>
  40460f:	90                   	nop
  404610:	bb 01 00 00 00       	mov    $0x1,%ebx
  404615:	48 8d 85 b0 fd ff ff 	lea    -0x250(%rbp),%rax
  40461c:	48 89 c7             	mov    %rax,%rdi
  40461f:	e8 7c f4 ff ff       	callq  403aa0 <_ZNSoD1Ev@plt>
  404624:	83 fb 01             	cmp    $0x1,%ebx
  404627:	74 07                	je     404630 <main+0x7b2>
  404629:	bb 00 00 00 00       	mov    $0x0,%ebx
  40462e:	eb 06                	jmp    404636 <main+0x7b8>
  404630:	90                   	nop
  404631:	bb 01 00 00 00       	mov    $0x1,%ebx
  404636:	48 8d 85 80 fb ff ff 	lea    -0x480(%rbp),%rax
  40463d:	48 89 c7             	mov    %rax,%rdi
  404640:	e8 01 fa 00 00       	callq  414046 <_ZN5boost4asio15basic_streambufISaIcEED1Ev>
  404645:	83 fb 01             	cmp    $0x1,%ebx
  404648:	74 07                	je     404651 <main+0x7d3>
  40464a:	bb 00 00 00 00       	mov    $0x0,%ebx
  40464f:	eb 06                	jmp    404657 <main+0x7d9>
  404651:	90                   	nop
  404652:	bb 01 00 00 00       	mov    $0x1,%ebx
  404657:	48 8d 85 60 fb ff ff 	lea    -0x4a0(%rbp),%rax
  40465e:	48 89 c7             	mov    %rax,%rdi
  404661:	e8 60 6c 00 00       	callq  40b2c6 <_ZN5boost4asio19basic_stream_socketINS0_2ip3tcpENS0_21stream_socket_serviceIS3_EEED1Ev>
  404666:	83 fb 01             	cmp    $0x1,%ebx
  404669:	74 07                	je     404672 <main+0x7f4>
  40466b:	bb 00 00 00 00       	mov    $0x0,%ebx
  404670:	eb 06                	jmp    404678 <main+0x7fa>
  404672:	90                   	nop
  404673:	bb 01 00 00 00       	mov    $0x1,%ebx
  404678:	48 8d 85 20 fb ff ff 	lea    -0x4e0(%rbp),%rax
  40467f:	48 89 c7             	mov    %rax,%rdi
  404682:	e8 ed 6b 00 00       	callq  40b274 <_ZN5boost4asio2ip23basic_resolver_iteratorINS1_3tcpEED1Ev>
  404687:	83 fb 01             	cmp    $0x1,%ebx
  40468a:	74 07                	je     404693 <main+0x815>
  40468c:	bb 00 00 00 00       	mov    $0x0,%ebx
  404691:	eb 06                	jmp    404699 <main+0x81b>
  404693:	90                   	nop
  404694:	bb 01 00 00 00       	mov    $0x1,%ebx
  404699:	48 8d 85 40 fd ff ff 	lea    -0x2c0(%rbp),%rax
  4046a0:	48 89 c7             	mov    %rax,%rdi
  4046a3:	e8 54 6b 00 00       	callq  40b1fc <_ZN5boost4asio2ip20basic_resolver_queryINS1_3tcpEED1Ev>
  4046a8:	83 fb 01             	cmp    $0x1,%ebx
  4046ab:	74 07                	je     4046b4 <main+0x836>
  4046ad:	bb 00 00 00 00       	mov    $0x0,%ebx
  4046b2:	eb 06                	jmp    4046ba <main+0x83c>
  4046b4:	90                   	nop
  4046b5:	bb 01 00 00 00       	mov    $0x1,%ebx
  4046ba:	48 8d 85 00 fb ff ff 	lea    -0x500(%rbp),%rax
  4046c1:	48 89 c7             	mov    %rax,%rdi
  4046c4:	e8 17 6b 00 00       	callq  40b1e0 <_ZN5boost4asio2ip14basic_resolverINS1_3tcpENS1_16resolver_serviceIS3_EEED1Ev>
  4046c9:	83 fb 01             	cmp    $0x1,%ebx
  4046cc:	74 07                	je     4046d5 <main+0x857>
  4046ce:	bb 00 00 00 00       	mov    $0x0,%ebx
  4046d3:	eb 06                	jmp    4046db <main+0x85d>
  4046d5:	90                   	nop
  4046d6:	bb 01 00 00 00       	mov    $0x1,%ebx
  4046db:	48 8d 85 e0 fa ff ff 	lea    -0x520(%rbp),%rax
  4046e2:	48 89 c7             	mov    %rax,%rdi
  4046e5:	e8 72 44 00 00       	callq  408b5c <_ZN5boost4asio10io_serviceD1Ev>
  4046ea:	83 fb 01             	cmp    $0x1,%ebx
  4046ed:	75 09                	jne    4046f8 <main+0x87a>
  4046ef:	90                   	nop
  4046f0:	41 bc 00 00 00 00    	mov    $0x0,%r12d
  4046f6:	eb 01                	jmp    4046f9 <main+0x87b>
  4046f8:	90                   	nop
  4046f9:	44 89 e0             	mov    %r12d,%eax
  4046fc:	48 8b 4d d8          	mov    -0x28(%rbp),%rcx
  404700:	64 48 33 0c 25 28 00 	xor    %fs:0x28,%rcx
  404707:	00 00 
  404709:	0f 84 c6 02 00 00    	je     4049d5 <main+0xb57>
  40470f:	e9 bc 02 00 00       	jmpq   4049d0 <main+0xb52>
  404714:	49 89 c4             	mov    %rax,%r12
  404717:	48 89 d3             	mov    %rdx,%rbx
  40471a:	48 8d 85 40 fc ff ff 	lea    -0x3c0(%rbp),%rax
  404721:	48 89 c7             	mov    %rax,%rdi
  404724:	e8 57 ef ff ff       	callq  403680 <_ZNSt7__cxx1112basic_stringIcSt11char_traitsIcESaIcEED1Ev@plt>
  404729:	eb 06                	jmp    404731 <main+0x8b3>
  40472b:	49 89 c4             	mov    %rax,%r12
  40472e:	48 89 d3             	mov    %rdx,%rbx
  404731:	48 8d 85 80 fb ff ff 	lea    -0x480(%rbp),%rax
  404738:	48 89 c7             	mov    %rax,%rdi
  40473b:	e8 b0 f0 ff ff       	callq  4037f0 <_ZNSaIcED1Ev@plt>
  404740:	48 8d 85 60 fc ff ff 	lea    -0x3a0(%rbp),%rax
  404747:	48 89 c7             	mov    %rax,%rdi
  40474a:	e8 31 ef ff ff       	callq  403680 <_ZNSt7__cxx1112basic_stringIcSt11char_traitsIcESaIcEED1Ev@plt>
  40474f:	eb 06                	jmp    404757 <main+0x8d9>
  404751:	49 89 c4             	mov    %rax,%r12
  404754:	48 89 d3             	mov    %rdx,%rbx
  404757:	48 8d 85 e0 fb ff ff 	lea    -0x420(%rbp),%rax
  40475e:	48 89 c7             	mov    %rax,%rdi
  404761:	e8 8a f0 ff ff       	callq  4037f0 <_ZNSaIcED1Ev@plt>
  404766:	e9 b6 01 00 00       	jmpq   404921 <main+0xaa3>
  40476b:	49 89 c4             	mov    %rax,%r12
  40476e:	48 89 d3             	mov    %rdx,%rbx
  404771:	48 8d 85 e0 fb ff ff 	lea    -0x420(%rbp),%rax
  404778:	48 89 c7             	mov    %rax,%rdi
  40477b:	e8 f4 6a 00 00       	callq  40b274 <_ZN5boost4asio2ip23basic_resolver_iteratorINS1_3tcpEED1Ev>
  404780:	e9 5f 01 00 00       	jmpq   4048e4 <main+0xa66>
  404785:	49 89 c4             	mov    %rax,%r12
  404788:	48 89 d3             	mov    %rdx,%rbx
  40478b:	48 8d 85 e0 fb ff ff 	lea    -0x420(%rbp),%rax
  404792:	48 89 c7             	mov    %rax,%rdi
  404795:	e8 56 f0 ff ff       	callq  4037f0 <_ZNSaIcED1Ev@plt>
  40479a:	e9 45 01 00 00       	jmpq   4048e4 <main+0xa66>
  40479f:	49 89 c4             	mov    %rax,%r12
  4047a2:	48 89 d3             	mov    %rdx,%rbx
  4047a5:	48 8d 85 40 fb ff ff 	lea    -0x4c0(%rbp),%rax
  4047ac:	48 89 c7             	mov    %rax,%rdi
  4047af:	e8 3c f0 ff ff       	callq  4037f0 <_ZNSaIcED1Ev@plt>
  4047b4:	e9 05 01 00 00       	jmpq   4048be <main+0xa40>
  4047b9:	49 89 c4             	mov    %rax,%r12
  4047bc:	48 89 d3             	mov    %rdx,%rbx
  4047bf:	48 8d 85 80 fc ff ff 	lea    -0x380(%rbp),%rax
  4047c6:	48 89 c7             	mov    %rax,%rdi
  4047c9:	e8 b2 ee ff ff       	callq  403680 <_ZNSt7__cxx1112basic_stringIcSt11char_traitsIcESaIcEED1Ev@plt>
  4047ce:	eb 06                	jmp    4047d6 <main+0x958>
  4047d0:	49 89 c4             	mov    %rax,%r12
  4047d3:	48 89 d3             	mov    %rdx,%rbx
  4047d6:	48 8d 85 40 fb ff ff 	lea    -0x4c0(%rbp),%rax
  4047dd:	48 89 c7             	mov    %rax,%rdi
  4047e0:	e8 0b f0 ff ff       	callq  4037f0 <_ZNSaIcED1Ev@plt>
  4047e5:	e9 bd 00 00 00       	jmpq   4048a7 <main+0xa29>
  4047ea:	49 89 c4             	mov    %rax,%r12
  4047ed:	49 89 d5             	mov    %rdx,%r13
  4047f0:	84 db                	test   %bl,%bl
  4047f2:	74 12                	je     404806 <main+0x988>
  4047f4:	90                   	nop
  4047f5:	48 8d 85 e0 fc ff ff 	lea    -0x320(%rbp),%rax
  4047fc:	48 89 c7             	mov    %rax,%rdi
  4047ff:	e8 7c ee ff ff       	callq  403680 <_ZNSt7__cxx1112basic_stringIcSt11char_traitsIcESaIcEED1Ev@plt>
  404804:	eb 01                	jmp    404807 <main+0x989>
  404806:	90                   	nop
  404807:	4c 89 eb             	mov    %r13,%rbx
  40480a:	eb 5e                	jmp    40486a <main+0x9ec>
  40480c:	49 89 c4             	mov    %rax,%r12
  40480f:	48 89 d3             	mov    %rdx,%rbx
  404812:	48 8d 85 00 fd ff ff 	lea    -0x300(%rbp),%rax
  404819:	48 89 c7             	mov    %rax,%rdi
  40481c:	e8 5f ee ff ff       	callq  403680 <_ZNSt7__cxx1112basic_stringIcSt11char_traitsIcESaIcEED1Ev@plt>
  404821:	eb 06                	jmp    404829 <main+0x9ab>
  404823:	49 89 c4             	mov    %rax,%r12
  404826:	48 89 d3             	mov    %rdx,%rbx
  404829:	48 8d 85 40 fb ff ff 	lea    -0x4c0(%rbp),%rax
  404830:	48 89 c7             	mov    %rax,%rdi
  404833:	e8 b8 ef ff ff       	callq  4037f0 <_ZNSaIcED1Ev@plt>
  404838:	eb 30                	jmp    40486a <main+0x9ec>
  40483a:	49 89 c4             	mov    %rax,%r12
  40483d:	49 89 d5             	mov    %rdx,%r13
  404840:	48 89 df             	mov    %rbx,%rdi
  404843:	e8 68 ee ff ff       	callq  4036b0 <__cxa_free_exception@plt>
  404848:	4c 89 eb             	mov    %r13,%rbx
  40484b:	eb 06                	jmp    404853 <main+0x9d5>
  40484d:	49 89 c4             	mov    %rax,%r12
  404850:	48 89 d3             	mov    %rdx,%rbx
  404853:	48 8d 85 20 fd ff ff 	lea    -0x2e0(%rbp),%rax
  40485a:	48 89 c7             	mov    %rax,%rdi
  40485d:	e8 1e ee ff ff       	callq  403680 <_ZNSt7__cxx1112basic_stringIcSt11char_traitsIcESaIcEED1Ev@plt>
  404862:	eb 06                	jmp    40486a <main+0x9ec>
  404864:	49 89 c4             	mov    %rax,%r12
  404867:	48 89 d3             	mov    %rdx,%rbx
  40486a:	48 8d 85 c0 fc ff ff 	lea    -0x340(%rbp),%rax
  404871:	48 89 c7             	mov    %rax,%rdi
  404874:	e8 07 ee ff ff       	callq  403680 <_ZNSt7__cxx1112basic_stringIcSt11char_traitsIcESaIcEED1Ev@plt>
  404879:	eb 06                	jmp    404881 <main+0xa03>
  40487b:	49 89 c4             	mov    %rax,%r12
  40487e:	48 89 d3             	mov    %rdx,%rbx
  404881:	48 8d 85 a0 fc ff ff 	lea    -0x360(%rbp),%rax
  404888:	48 89 c7             	mov    %rax,%rdi
  40488b:	e8 f0 ed ff ff       	callq  403680 <_ZNSt7__cxx1112basic_stringIcSt11char_traitsIcESaIcEED1Ev@plt>
  404890:	48 8d 85 c0 fe ff ff 	lea    -0x140(%rbp),%rax
  404897:	48 89 c7             	mov    %rax,%rdi
  40489a:	e8 91 f2 ff ff       	callq  403b30 <_ZNSiD1Ev@plt>
  40489f:	eb 06                	jmp    4048a7 <main+0xa29>
  4048a1:	49 89 c4             	mov    %rax,%r12
  4048a4:	48 89 d3             	mov    %rdx,%rbx
  4048a7:	48 8d 85 e0 fb ff ff 	lea    -0x420(%rbp),%rax
  4048ae:	48 89 c7             	mov    %rax,%rdi
  4048b1:	e8 90 f7 00 00       	callq  414046 <_ZN5boost4asio15basic_streambufISaIcEED1Ev>
  4048b6:	eb 06                	jmp    4048be <main+0xa40>
  4048b8:	49 89 c4             	mov    %rax,%r12
  4048bb:	48 89 d3             	mov    %rdx,%rbx
  4048be:	48 8d 85 b0 fd ff ff 	lea    -0x250(%rbp),%rax
  4048c5:	48 89 c7             	mov    %rax,%rdi
  4048c8:	e8 d3 f1 ff ff       	callq  403aa0 <_ZNSoD1Ev@plt>
  4048cd:	eb 06                	jmp    4048d5 <main+0xa57>
  4048cf:	49 89 c4             	mov    %rax,%r12
  4048d2:	48 89 d3             	mov    %rdx,%rbx
  4048d5:	48 8d 85 80 fb ff ff 	lea    -0x480(%rbp),%rax
  4048dc:	48 89 c7             	mov    %rax,%rdi
  4048df:	e8 62 f7 00 00       	callq  414046 <_ZN5boost4asio15basic_streambufISaIcEED1Ev>
  4048e4:	48 8d 85 60 fb ff ff 	lea    -0x4a0(%rbp),%rax
  4048eb:	48 89 c7             	mov    %rax,%rdi
  4048ee:	e8 d3 69 00 00       	callq  40b2c6 <_ZN5boost4asio19basic_stream_socketINS0_2ip3tcpENS0_21stream_socket_serviceIS3_EEED1Ev>
  4048f3:	eb 06                	jmp    4048fb <main+0xa7d>
  4048f5:	49 89 c4             	mov    %rax,%r12
  4048f8:	48 89 d3             	mov    %rdx,%rbx
  4048fb:	48 8d 85 20 fb ff ff 	lea    -0x4e0(%rbp),%rax
  404902:	48 89 c7             	mov    %rax,%rdi
  404905:	e8 6a 69 00 00       	callq  40b274 <_ZN5boost4asio2ip23basic_resolver_iteratorINS1_3tcpEED1Ev>
  40490a:	eb 06                	jmp    404912 <main+0xa94>
  40490c:	49 89 c4             	mov    %rax,%r12
  40490f:	48 89 d3             	mov    %rdx,%rbx
  404912:	48 8d 85 40 fd ff ff 	lea    -0x2c0(%rbp),%rax
  404919:	48 89 c7             	mov    %rax,%rdi
  40491c:	e8 db 68 00 00       	callq  40b1fc <_ZN5boost4asio2ip20basic_resolver_queryINS1_3tcpEED1Ev>
  404921:	48 8d 85 00 fb ff ff 	lea    -0x500(%rbp),%rax
  404928:	48 89 c7             	mov    %rax,%rdi
  40492b:	e8 b0 68 00 00       	callq  40b1e0 <_ZN5boost4asio2ip14basic_resolverINS1_3tcpENS1_16resolver_serviceIS3_EEED1Ev>
  404930:	eb 06                	jmp    404938 <main+0xaba>
  404932:	49 89 c4             	mov    %rax,%r12
  404935:	48 89 d3             	mov    %rdx,%rbx
  404938:	48 8d 85 e0 fa ff ff 	lea    -0x520(%rbp),%rax
  40493f:	48 89 c7             	mov    %rax,%rdi
  404942:	e8 15 42 00 00       	callq  408b5c <_ZN5boost4asio10io_serviceD1Ev>
  404947:	4c 89 e0             	mov    %r12,%rax
  40494a:	48 89 da             	mov    %rbx,%rdx
  40494d:	eb 00                	jmp    40494f <main+0xad1>
  40494f:	48 83 fa 01          	cmp    $0x1,%rdx
  404953:	74 08                	je     40495d <main+0xadf>
  404955:	48 89 c7             	mov    %rax,%rdi
  404958:	e8 f3 f1 ff ff       	callq  403b50 <_Unwind_Resume@plt>
  40495d:	48 89 c7             	mov    %rax,%rdi
  404960:	e8 5b ec ff ff       	callq  4035c0 <__cxa_begin_catch@plt>
  404965:	48 89 85 d8 fa ff ff 	mov    %rax,-0x528(%rbp)
  40496c:	48 8b 85 d8 fa ff ff 	mov    -0x528(%rbp),%rax
  404973:	48 8b 00             	mov    (%rax),%rax
  404976:	48 83 c0 10          	add    $0x10,%rax
  40497a:	48 8b 00             	mov    (%rax),%rax
  40497d:	48 8b 95 d8 fa ff ff 	mov    -0x528(%rbp),%rdx
  404984:	48 89 d7             	mov    %rdx,%rdi
  404987:	ff d0                	callq  *%rax
  404989:	48 89 c3             	mov    %rax,%rbx
  40498c:	be 0d 50 41 00       	mov    $0x41500d,%esi
  404991:	bf c0 04 62 00       	mov    $0x6204c0,%edi
  404996:	e8 05 ee ff ff       	callq  4037a0 <_ZStlsISt11char_traitsIcEERSt13basic_ostreamIcT_ES5_PKc@plt>
  40499b:	48 89 de             	mov    %rbx,%rsi
  40499e:	48 89 c7             	mov    %rax,%rdi
  4049a1:	e8 fa ed ff ff       	callq  4037a0 <_ZStlsISt11char_traitsIcEERSt13basic_ostreamIcT_ES5_PKc@plt>
  4049a6:	be 04 50 41 00       	mov    $0x415004,%esi
  4049ab:	48 89 c7             	mov    %rax,%rdi
  4049ae:	e8 ed ed ff ff       	callq  4037a0 <_ZStlsISt11char_traitsIcEERSt13basic_ostreamIcT_ES5_PKc@plt>
  4049b3:	e8 28 f1 ff ff       	callq  403ae0 <__cxa_end_catch@plt>
  4049b8:	e9 33 fd ff ff       	jmpq   4046f0 <main+0x872>
  4049bd:	48 89 c3             	mov    %rax,%rbx
  4049c0:	e8 1b f1 ff ff       	callq  403ae0 <__cxa_end_catch@plt>
  4049c5:	48 89 d8             	mov    %rbx,%rax
  4049c8:	48 89 c7             	mov    %rax,%rdi
  4049cb:	e8 80 f1 ff ff       	callq  403b50 <_Unwind_Resume@plt>
  4049d0:	e8 5b ee ff ff       	callq  403830 <__stack_chk_fail@plt>
  4049d5:	48 81 c4 28 05 00 00 	add    $0x528,%rsp
  4049dc:	5b                   	pop    %rbx
  4049dd:	41 5c                	pop    %r12
  4049df:	41 5d                	pop    %r13
  4049e1:	5d                   	pop    %rbp
  4049e2:	c3                   	retq   

00000000004049e3 <_Z41__static_initialization_and_destruction_0ii>:
  4049e3:	55                   	push   %rbp
  4049e4:	48 89 e5             	mov    %rsp,%rbp
  4049e7:	48 83 ec 10          	sub    $0x10,%rsp
  4049eb:	89 7d fc             	mov    %edi,-0x4(%rbp)
  4049ee:	89 75 f8             	mov    %esi,-0x8(%rbp)
  4049f1:	83 7d fc 01          	cmpl   $0x1,-0x4(%rbp)
  4049f5:	0f 85 dd 01 00 00    	jne    404bd8 <_Z41__static_initialization_and_destruction_0ii+0x1f5>
  4049fb:	81 7d f8 ff ff 00 00 	cmpl   $0xffff,-0x8(%rbp)
  404a02:	0f 85 d0 01 00 00    	jne    404bd8 <_Z41__static_initialization_and_destruction_0ii+0x1f5>
  404a08:	bf 10 07 62 00       	mov    $0x620710,%edi
  404a0d:	e8 6e f0 ff ff       	callq  403a80 <_ZNSt8ios_base4InitC1Ev@plt>
  404a12:	ba 08 04 62 00       	mov    $0x620408,%edx
  404a17:	be 10 07 62 00       	mov    $0x620710,%esi
  404a1c:	bf 40 3c 40 00       	mov    $0x403c40,%edi
  404a21:	e8 0a ed ff ff       	callq  403730 <__cxa_atexit@plt>
  404a26:	e8 85 f0 ff ff       	callq  403ab0 <_ZN5boost6system16generic_categoryEv@plt>
  404a2b:	48 89 05 e6 bc 21 00 	mov    %rax,0x21bce6(%rip)        # 620718 <_ZN5boost6systemL14posix_categoryE>
  404a32:	e8 79 f0 ff ff       	callq  403ab0 <_ZN5boost6system16generic_categoryEv@plt>
  404a37:	48 89 05 e2 bc 21 00 	mov    %rax,0x21bce2(%rip)        # 620720 <_ZN5boost6systemL10errno_ecatE>
  404a3e:	e8 cd ed ff ff       	callq  403810 <_ZN5boost6system15system_categoryEv@plt>
  404a43:	48 89 05 de bc 21 00 	mov    %rax,0x21bcde(%rip)        # 620728 <_ZN5boost6systemL11native_ecatE>
  404a4a:	e8 1a 0d 00 00       	callq  405769 <_ZN5boost4asio5error19get_system_categoryEv>
  404a4f:	48 89 05 da bc 21 00 	mov    %rax,0x21bcda(%rip)        # 620730 <_ZN5boost4asio5errorL15system_categoryE>
  404a56:	e8 7b 10 00 00       	callq  405ad6 <_ZN5boost4asio5error18get_netdb_categoryEv>
  404a5b:	48 89 05 d6 bc 21 00 	mov    %rax,0x21bcd6(%rip)        # 620738 <_ZN5boost4asio5errorL14netdb_categoryE>
  404a62:	e8 f3 11 00 00       	callq  405c5a <_ZN5boost4asio5error21get_addrinfo_categoryEv>
  404a67:	48 89 05 d2 bc 21 00 	mov    %rax,0x21bcd2(%rip)        # 620740 <_ZN5boost4asio5errorL17addrinfo_categoryE>
  404a6e:	e8 15 14 00 00       	callq  405e88 <_ZN5boost4asio5error17get_misc_categoryEv>
  404a73:	48 89 05 ce bc 21 00 	mov    %rax,0x21bcce(%rip)        # 620748 <_ZN5boost4asio5errorL13misc_categoryE>
  404a7a:	b8 70 07 62 00       	mov    $0x620770,%eax
  404a7f:	0f b6 00             	movzbl (%rax),%eax
  404a82:	84 c0                	test   %al,%al
  404a84:	75 26                	jne    404aac <_Z41__static_initialization_and_destruction_0ii+0xc9>
  404a86:	b8 70 07 62 00       	mov    $0x620770,%eax
  404a8b:	c6 00 01             	movb   $0x1,(%rax)
  404a8e:	bf 68 07 62 00       	mov    $0x620768,%edi
  404a93:	e8 68 69 00 00       	callq  40b400 <_ZN5boost4asio6detail7tss_ptrINS1_10call_stackINS1_15task_io_serviceENS1_27task_io_service_thread_infoEE7contextEEC1Ev>
  404a98:	ba 08 04 62 00       	mov    $0x620408,%edx
  404a9d:	be 68 07 62 00       	mov    $0x620768,%esi
  404aa2:	bf 64 43 41 00       	mov    $0x414364,%edi
  404aa7:	e8 84 ec ff ff       	callq  403730 <__cxa_atexit@plt>
  404aac:	b8 78 07 62 00       	mov    $0x620778,%eax
  404ab1:	0f b6 00             	movzbl (%rax),%eax
  404ab4:	84 c0                	test   %al,%al
  404ab6:	75 26                	jne    404ade <_Z41__static_initialization_and_destruction_0ii+0xfb>
  404ab8:	b8 78 07 62 00       	mov    $0x620778,%eax
  404abd:	c6 00 01             	movb   $0x1,(%rax)
  404ac0:	bf 69 07 62 00       	mov    $0x620769,%edi
  404ac5:	e8 f0 74 00 00       	callq  40bfba <_ZN5boost4asio6detail10service_idINS1_13epoll_reactorEEC1Ev>
  404aca:	ba 08 04 62 00       	mov    $0x620408,%edx
  404acf:	be 69 07 62 00       	mov    $0x620769,%esi
  404ad4:	bf 80 43 41 00       	mov    $0x414380,%edi
  404ad9:	e8 52 ec ff ff       	callq  403730 <__cxa_atexit@plt>
  404ade:	b8 80 07 62 00       	mov    $0x620780,%eax
  404ae3:	0f b6 00             	movzbl (%rax),%eax
  404ae6:	84 c0                	test   %al,%al
  404ae8:	75 26                	jne    404b10 <_Z41__static_initialization_and_destruction_0ii+0x12d>
  404aea:	b8 80 07 62 00       	mov    $0x620780,%eax
  404aef:	c6 00 01             	movb   $0x1,(%rax)
  404af2:	bf 6a 07 62 00       	mov    $0x62076a,%edi
  404af7:	e8 30 78 00 00       	callq  40c32c <_ZN5boost4asio6detail10service_idINS1_15task_io_serviceEEC1Ev>
  404afc:	ba 08 04 62 00       	mov    $0x620408,%edx
  404b01:	be 6a 07 62 00       	mov    $0x62076a,%esi
  404b06:	bf 9c 43 41 00       	mov    $0x41439c,%edi
  404b0b:	e8 20 ec ff ff       	callq  403730 <__cxa_atexit@plt>
  404b10:	b8 88 07 62 00       	mov    $0x620788,%eax
  404b15:	0f b6 00             	movzbl (%rax),%eax
  404b18:	84 c0                	test   %al,%al
  404b1a:	75 26                	jne    404b42 <_Z41__static_initialization_and_destruction_0ii+0x15f>
  404b1c:	b8 88 07 62 00       	mov    $0x620788,%eax
  404b21:	c6 00 01             	movb   $0x1,(%rax)
  404b24:	bf 6b 07 62 00       	mov    $0x62076b,%edi
  404b29:	e8 14 80 00 00       	callq  40cb42 <_ZN5boost4asio6detail7tss_ptrINS1_10call_stackINS1_14strand_service11strand_implEhE7contextEEC1Ev>
  404b2e:	ba 08 04 62 00       	mov    $0x620408,%edx
  404b33:	be 6b 07 62 00       	mov    $0x62076b,%esi
  404b38:	bf b8 43 41 00       	mov    $0x4143b8,%edi
  404b3d:	e8 ee eb ff ff       	callq  403730 <__cxa_atexit@plt>
  404b42:	b8 90 07 62 00       	mov    $0x620790,%eax
  404b47:	0f b6 00             	movzbl (%rax),%eax
  404b4a:	84 c0                	test   %al,%al
  404b4c:	75 26                	jne    404b74 <_Z41__static_initialization_and_destruction_0ii+0x191>
  404b4e:	b8 90 07 62 00       	mov    $0x620790,%eax
  404b53:	c6 00 01             	movb   $0x1,(%rax)
  404b56:	bf 6c 07 62 00       	mov    $0x62076c,%edi
  404b5b:	e8 fe 7f 00 00       	callq  40cb5e <_ZN5boost4asio6detail10service_idINS1_14strand_serviceEEC1Ev>
  404b60:	ba 08 04 62 00       	mov    $0x620408,%edx
  404b65:	be 6c 07 62 00       	mov    $0x62076c,%esi
  404b6a:	bf d4 43 41 00       	mov    $0x4143d4,%edi
  404b6f:	e8 bc eb ff ff       	callq  403730 <__cxa_atexit@plt>
  404b74:	b8 98 07 62 00       	mov    $0x620798,%eax
  404b79:	0f b6 00             	movzbl (%rax),%eax
  404b7c:	84 c0                	test   %al,%al
  404b7e:	75 26                	jne    404ba6 <_Z41__static_initialization_and_destruction_0ii+0x1c3>
  404b80:	b8 98 07 62 00       	mov    $0x620798,%eax
  404b85:	c6 00 01             	movb   $0x1,(%rax)
  404b88:	bf 6d 07 62 00       	mov    $0x62076d,%edi
  404b8d:	e8 34 9e 00 00       	callq  40e9c6 <_ZN5boost4asio6detail10service_idINS0_2ip16resolver_serviceINS3_3tcpEEEEC1Ev>
  404b92:	ba 08 04 62 00       	mov    $0x620408,%edx
  404b97:	be 6d 07 62 00       	mov    $0x62076d,%esi
  404b9c:	bf f0 43 41 00       	mov    $0x4143f0,%edi
  404ba1:	e8 8a eb ff ff       	callq  403730 <__cxa_atexit@plt>
  404ba6:	b8 a0 07 62 00       	mov    $0x6207a0,%eax
  404bab:	0f b6 00             	movzbl (%rax),%eax
  404bae:	84 c0                	test   %al,%al
  404bb0:	75 26                	jne    404bd8 <_Z41__static_initialization_and_destruction_0ii+0x1f5>
  404bb2:	b8 a0 07 62 00       	mov    $0x6207a0,%eax
  404bb7:	c6 00 01             	movb   $0x1,(%rax)
  404bba:	bf 6e 07 62 00       	mov    $0x62076e,%edi
  404bbf:	e8 98 b8 00 00       	callq  41045c <_ZN5boost4asio6detail10service_idINS0_21stream_socket_serviceINS0_2ip3tcpEEEEC1Ev>
  404bc4:	ba 08 04 62 00       	mov    $0x620408,%edx
  404bc9:	be 6e 07 62 00       	mov    $0x62076e,%esi
  404bce:	bf 0c 44 41 00       	mov    $0x41440c,%edi
  404bd3:	e8 58 eb ff ff       	callq  403730 <__cxa_atexit@plt>
  404bd8:	90                   	nop
  404bd9:	c9                   	leaveq 
  404bda:	c3                   	retq   

0000000000404bdb <_GLOBAL__sub_I_main>:
  404bdb:	55                   	push   %rbp
  404bdc:	48 89 e5             	mov    %rsp,%rbp
  404bdf:	be ff ff 00 00       	mov    $0xffff,%esi
  404be4:	bf 01 00 00 00       	mov    $0x1,%edi
  404be9:	e8 f5 fd ff ff       	callq  4049e3 <_Z41__static_initialization_and_destruction_0ii>
  404bee:	5d                   	pop    %rbp
  404bef:	c3                   	retq   

0000000000404bf0 <_ZNSt11char_traitsIcE12to_char_typeERKi>:
  404bf0:	55                   	push   %rbp
  404bf1:	48 89 e5             	mov    %rsp,%rbp
  404bf4:	48 89 7d f8          	mov    %rdi,-0x8(%rbp)
  404bf8:	48 8b 45 f8          	mov    -0x8(%rbp),%rax
  404bfc:	8b 00                	mov    (%rax),%eax
  404bfe:	5d                   	pop    %rbp
  404bff:	c3                   	retq   

0000000000404c00 <_ZNSt11char_traitsIcE11to_int_typeERKc>:
  404c00:	55                   	push   %rbp
  404c01:	48 89 e5             	mov    %rsp,%rbp
  404c04:	48 89 7d f8          	mov    %rdi,-0x8(%rbp)
  404c08:	48 8b 45 f8          	mov    -0x8(%rbp),%rax
  404c0c:	0f b6 00             	movzbl (%rax),%eax
  404c0f:	0f b6 c0             	movzbl %al,%eax
  404c12:	5d                   	pop    %rbp
  404c13:	c3                   	retq   

0000000000404c14 <_ZNSt11char_traitsIcE11eq_int_typeERKiS2_>:
  404c14:	55                   	push   %rbp
  404c15:	48 89 e5             	mov    %rsp,%rbp
  404c18:	48 89 7d f8          	mov    %rdi,-0x8(%rbp)
  404c1c:	48 89 75 f0          	mov    %rsi,-0x10(%rbp)
  404c20:	48 8b 45 f8          	mov    -0x8(%rbp),%rax
  404c24:	8b 10                	mov    (%rax),%edx
  404c26:	48 8b 45 f0          	mov    -0x10(%rbp),%rax
  404c2a:	8b 00                	mov    (%rax),%eax
  404c2c:	39 c2                	cmp    %eax,%edx
  404c2e:	0f 94 c0             	sete   %al
  404c31:	5d                   	pop    %rbp
  404c32:	c3                   	retq   

0000000000404c33 <_ZNSt11char_traitsIcE3eofEv>:
  404c33:	55                   	push   %rbp
  404c34:	48 89 e5             	mov    %rsp,%rbp
  404c37:	b8 ff ff ff ff       	mov    $0xffffffff,%eax
  404c3c:	5d                   	pop    %rbp
  404c3d:	c3                   	retq   

0000000000404c3e <_ZNSt11char_traitsIcE7not_eofERKi>:
  404c3e:	55                   	push   %rbp
  404c3f:	48 89 e5             	mov    %rsp,%rbp
  404c42:	53                   	push   %rbx
  404c43:	48 83 ec 18          	sub    $0x18,%rsp
  404c47:	48 89 7d e8          	mov    %rdi,-0x18(%rbp)
  404c4b:	48 8b 45 e8          	mov    -0x18(%rbp),%rax
  404c4f:	8b 18                	mov    (%rax),%ebx
  404c51:	e8 dd ff ff ff       	callq  404c33 <_ZNSt11char_traitsIcE3eofEv>
  404c56:	39 c3                	cmp    %eax,%ebx
  404c58:	74 08                	je     404c62 <_ZNSt11char_traitsIcE7not_eofERKi+0x24>
  404c5a:	48 8b 45 e8          	mov    -0x18(%rbp),%rax
  404c5e:	8b 00                	mov    (%rax),%eax
  404c60:	eb 05                	jmp    404c67 <_ZNSt11char_traitsIcE7not_eofERKi+0x29>
  404c62:	b8 00 00 00 00       	mov    $0x0,%eax
  404c67:	48 83 c4 18          	add    $0x18,%rsp
  404c6b:	5b                   	pop    %rbx
  404c6c:	5d                   	pop    %rbp
  404c6d:	c3                   	retq   

0000000000404c6e <_ZnwmPv>:
  404c6e:	55                   	push   %rbp
  404c6f:	48 89 e5             	mov    %rsp,%rbp
  404c72:	48 89 7d f8          	mov    %rdi,-0x8(%rbp)
  404c76:	48 89 75 f0          	mov    %rsi,-0x10(%rbp)
  404c7a:	48 8b 45 f0          	mov    -0x10(%rbp),%rax
  404c7e:	5d                   	pop    %rbp
  404c7f:	c3                   	retq   

0000000000404c80 <_ZdlPvS_>:
  404c80:	55                   	push   %rbp
  404c81:	48 89 e5             	mov    %rsp,%rbp
  404c84:	48 89 7d f8          	mov    %rdi,-0x8(%rbp)
  404c88:	48 89 75 f0          	mov    %rsi,-0x10(%rbp)
  404c8c:	90                   	nop
  404c8d:	5d                   	pop    %rbp
  404c8e:	c3                   	retq   
  404c8f:	90                   	nop

0000000000404c90 <_ZNKSt9type_infoeqERKS_>:
  404c90:	55                   	push   %rbp
  404c91:	48 89 e5             	mov    %rsp,%rbp
  404c94:	48 83 ec 10          	sub    $0x10,%rsp
  404c98:	48 89 7d f8          	mov    %rdi,-0x8(%rbp)
  404c9c:	48 89 75 f0          	mov    %rsi,-0x10(%rbp)
  404ca0:	48 8b 45 f8          	mov    -0x8(%rbp),%rax
  404ca4:	48 8b 50 08          	mov    0x8(%rax),%rdx
  404ca8:	48 8b 45 f0          	mov    -0x10(%rbp),%rax
  404cac:	48 8b 40 08          	mov    0x8(%rax),%rax
  404cb0:	48 39 c2             	cmp    %rax,%rdx
  404cb3:	74 2e                	je     404ce3 <_ZNKSt9type_infoeqERKS_+0x53>
  404cb5:	48 8b 45 f8          	mov    -0x8(%rbp),%rax
  404cb9:	48 8b 40 08          	mov    0x8(%rax),%rax
  404cbd:	0f b6 00             	movzbl (%rax),%eax
  404cc0:	3c 2a                	cmp    $0x2a,%al
  404cc2:	74 26                	je     404cea <_ZNKSt9type_infoeqERKS_+0x5a>
  404cc4:	48 8b 45 f0          	mov    -0x10(%rbp),%rax
  404cc8:	48 8b 50 08          	mov    0x8(%rax),%rdx
  404ccc:	48 8b 45 f8          	mov    -0x8(%rbp),%rax
  404cd0:	48 8b 40 08          	mov    0x8(%rax),%rax
  404cd4:	48 89 d6             	mov    %rdx,%rsi
  404cd7:	48 89 c7             	mov    %rax,%rdi
  404cda:	e8 a1 ec ff ff       	callq  403980 <strcmp@plt>
  404cdf:	85 c0                	test   %eax,%eax
  404ce1:	75 07                	jne    404cea <_ZNKSt9type_infoeqERKS_+0x5a>
  404ce3:	b8 01 00 00 00       	mov    $0x1,%eax
  404ce8:	eb 05                	jmp    404cef <_ZNKSt9type_infoeqERKS_+0x5f>
  404cea:	b8 00 00 00 00       	mov    $0x0,%eax
  404cef:	c9                   	leaveq 
  404cf0:	c3                   	retq   
  404cf1:	90                   	nop

0000000000404cf2 <_ZN5boost4asio6detail11noncopyableC1Ev>:
  404cf2:	55                   	push   %rbp
  404cf3:	48 89 e5             	mov    %rsp,%rbp
  404cf6:	48 89 7d f8          	mov    %rdi,-0x8(%rbp)
  404cfa:	90                   	nop
  404cfb:	5d                   	pop    %rbp
  404cfc:	c3                   	retq   
  404cfd:	90                   	nop

0000000000404cfe <_ZN5boost4asio6detail11noncopyableD1Ev>:
  404cfe:	55                   	push   %rbp
  404cff:	48 89 e5             	mov    %rsp,%rbp
  404d02:	48 89 7d f8          	mov    %rdi,-0x8(%rbp)
  404d06:	90                   	nop
  404d07:	5d                   	pop    %rbp
  404d08:	c3                   	retq   

0000000000404d09 <_ZStanSt12memory_orderSt23__memory_order_modifier>:
  404d09:	55                   	push   %rbp
  404d0a:	48 89 e5             	mov    %rsp,%rbp
  404d0d:	89 7d fc             	mov    %edi,-0x4(%rbp)
  404d10:	89 75 f8             	mov    %esi,-0x8(%rbp)
  404d13:	8b 55 fc             	mov    -0x4(%rbp),%edx
  404d16:	8b 45 f8             	mov    -0x8(%rbp),%eax
  404d19:	21 d0                	and    %edx,%eax
  404d1b:	5d                   	pop    %rbp
  404d1c:	c3                   	retq   
  404d1d:	90                   	nop

0000000000404d1e <_ZN5boost4asio6detail16thread_info_baseC1Ev>:
  404d1e:	55                   	push   %rbp
  404d1f:	48 89 e5             	mov    %rsp,%rbp
  404d22:	48 83 ec 10          	sub    $0x10,%rsp
  404d26:	48 89 7d f8          	mov    %rdi,-0x8(%rbp)
  404d2a:	48 8b 45 f8          	mov    -0x8(%rbp),%rax
  404d2e:	48 89 c7             	mov    %rax,%rdi
  404d31:	e8 bc ff ff ff       	callq  404cf2 <_ZN5boost4asio6detail11noncopyableC1Ev>
  404d36:	48 8b 45 f8          	mov    -0x8(%rbp),%rax
  404d3a:	48 c7 00 00 00 00 00 	movq   $0x0,(%rax)
  404d41:	90                   	nop
  404d42:	c9                   	leaveq 
  404d43:	c3                   	retq   

0000000000404d44 <_ZN5boost4asio6detail16thread_info_baseD1Ev>:
  404d44:	55                   	push   %rbp
  404d45:	48 89 e5             	mov    %rsp,%rbp
  404d48:	48 83 ec 10          	sub    $0x10,%rsp
  404d4c:	48 89 7d f8          	mov    %rdi,-0x8(%rbp)
  404d50:	48 8b 45 f8          	mov    -0x8(%rbp),%rax
  404d54:	48 8b 00             	mov    (%rax),%rax
  404d57:	48 85 c0             	test   %rax,%rax
  404d5a:	74 0f                	je     404d6b <_ZN5boost4asio6detail16thread_info_baseD1Ev+0x27>
  404d5c:	48 8b 45 f8          	mov    -0x8(%rbp),%rax
  404d60:	48 8b 00             	mov    (%rax),%rax
  404d63:	48 89 c7             	mov    %rax,%rdi
  404d66:	e8 f5 e9 ff ff       	callq  403760 <_ZdlPv@plt>
  404d6b:	48 8b 45 f8          	mov    -0x8(%rbp),%rax
  404d6f:	48 89 c7             	mov    %rax,%rdi
  404d72:	e8 87 ff ff ff       	callq  404cfe <_ZN5boost4asio6detail11noncopyableD1Ev>
  404d77:	90                   	nop
  404d78:	c9                   	leaveq 
  404d79:	c3                   	retq   

0000000000404d7a <_ZN5boost6system14error_categoryD1Ev>:
  404d7a:	55                   	push   %rbp
  404d7b:	48 89 e5             	mov    %rsp,%rbp
  404d7e:	48 83 ec 10          	sub    $0x10,%rsp
  404d82:	48 89 7d f8          	mov    %rdi,-0x8(%rbp)
  404d86:	ba e8 5c 41 00       	mov    $0x415ce8,%edx
  404d8b:	48 8b 45 f8          	mov    -0x8(%rbp),%rax
  404d8f:	48 89 10             	mov    %rdx,(%rax)
  404d92:	b8 00 00 00 00       	mov    $0x0,%eax
  404d97:	85 c0                	test   %eax,%eax
  404d99:	74 0c                	je     404da7 <_ZN5boost6system14error_categoryD1Ev+0x2d>
  404d9b:	48 8b 45 f8          	mov    -0x8(%rbp),%rax
  404d9f:	48 89 c7             	mov    %rax,%rdi
  404da2:	e8 b9 e9 ff ff       	callq  403760 <_ZdlPv@plt>
  404da7:	c9                   	leaveq 
  404da8:	c3                   	retq   
  404da9:	90                   	nop

0000000000404daa <_ZN5boost6system14error_categoryD0Ev>:
  404daa:	55                   	push   %rbp
  404dab:	48 89 e5             	mov    %rsp,%rbp
  404dae:	48 83 ec 10          	sub    $0x10,%rsp
  404db2:	48 89 7d f8          	mov    %rdi,-0x8(%rbp)
  404db6:	48 8b 45 f8          	mov    -0x8(%rbp),%rax
  404dba:	48 89 c7             	mov    %rax,%rdi
  404dbd:	e8 b8 ff ff ff       	callq  404d7a <_ZN5boost6system14error_categoryD1Ev>
  404dc2:	48 8b 45 f8          	mov    -0x8(%rbp),%rax
  404dc6:	48 89 c7             	mov    %rax,%rdi
  404dc9:	e8 92 e9 ff ff       	callq  403760 <_ZdlPv@plt>
  404dce:	c9                   	leaveq 
  404dcf:	c3                   	retq   

0000000000404dd0 <_ZNK5boost6system14error_categoryeqERKS1_>:
  404dd0:	55                   	push   %rbp
  404dd1:	48 89 e5             	mov    %rsp,%rbp
  404dd4:	48 89 7d f8          	mov    %rdi,-0x8(%rbp)
  404dd8:	48 89 75 f0          	mov    %rsi,-0x10(%rbp)
  404ddc:	48 8b 45 f8          	mov    -0x8(%rbp),%rax
  404de0:	48 3b 45 f0          	cmp    -0x10(%rbp),%rax
  404de4:	0f 94 c0             	sete   %al
  404de7:	5d                   	pop    %rbp
  404de8:	c3                   	retq   
  404de9:	90                   	nop

0000000000404dea <_ZN5boost6system15error_conditionC1EiRKNS0_14error_categoryE>:
  404dea:	55                   	push   %rbp
  404deb:	48 89 e5             	mov    %rsp,%rbp
  404dee:	48 89 7d f8          	mov    %rdi,-0x8(%rbp)
  404df2:	89 75 f4             	mov    %esi,-0xc(%rbp)
  404df5:	48 89 55 e8          	mov    %rdx,-0x18(%rbp)
  404df9:	48 8b 45 f8          	mov    -0x8(%rbp),%rax
  404dfd:	8b 55 f4             	mov    -0xc(%rbp),%edx
  404e00:	89 10                	mov    %edx,(%rax)
  404e02:	48 8b 45 f8          	mov    -0x8(%rbp),%rax
  404e06:	48 8b 55 e8          	mov    -0x18(%rbp),%rdx
  404e0a:	48 89 50 08          	mov    %rdx,0x8(%rax)
  404e0e:	90                   	nop
  404e0f:	5d                   	pop    %rbp
  404e10:	c3                   	retq   

0000000000404e11 <_ZN5boost6systemeqERKNS0_15error_conditionES3_>:
  404e11:	55                   	push   %rbp
  404e12:	48 89 e5             	mov    %rsp,%rbp
  404e15:	48 89 7d f8          	mov    %rdi,-0x8(%rbp)
  404e19:	48 89 75 f0          	mov    %rsi,-0x10(%rbp)
  404e1d:	48 8b 45 f8          	mov    -0x8(%rbp),%rax
  404e21:	48 8b 50 08          	mov    0x8(%rax),%rdx
  404e25:	48 8b 45 f0          	mov    -0x10(%rbp),%rax
  404e29:	48 8b 40 08          	mov    0x8(%rax),%rax
  404e2d:	48 39 c2             	cmp    %rax,%rdx
  404e30:	75 17                	jne    404e49 <_ZN5boost6systemeqERKNS0_15error_conditionES3_+0x38>
  404e32:	48 8b 45 f8          	mov    -0x8(%rbp),%rax
  404e36:	8b 10                	mov    (%rax),%edx
  404e38:	48 8b 45 f0          	mov    -0x10(%rbp),%rax
  404e3c:	8b 00                	mov    (%rax),%eax
  404e3e:	39 c2                	cmp    %eax,%edx
  404e40:	75 07                	jne    404e49 <_ZN5boost6systemeqERKNS0_15error_conditionES3_+0x38>
  404e42:	b8 01 00 00 00       	mov    $0x1,%eax
  404e47:	eb 05                	jmp    404e4e <_ZN5boost6systemeqERKNS0_15error_conditionES3_+0x3d>
  404e49:	b8 00 00 00 00       	mov    $0x0,%eax
  404e4e:	5d                   	pop    %rbp
  404e4f:	c3                   	retq   

0000000000404e50 <_ZN5boost6system10error_codeC1Ev>:
  404e50:	55                   	push   %rbp
  404e51:	48 89 e5             	mov    %rsp,%rbp
  404e54:	48 83 ec 10          	sub    $0x10,%rsp
  404e58:	48 89 7d f8          	mov    %rdi,-0x8(%rbp)
  404e5c:	48 8b 45 f8          	mov    -0x8(%rbp),%rax
  404e60:	c7 00 00 00 00 00    	movl   $0x0,(%rax)
  404e66:	e8 a5 e9 ff ff       	callq  403810 <_ZN5boost6system15system_categoryEv@plt>
  404e6b:	48 89 c2             	mov    %rax,%rdx
  404e6e:	48 8b 45 f8          	mov    -0x8(%rbp),%rax
  404e72:	48 89 50 08          	mov    %rdx,0x8(%rax)
  404e76:	90                   	nop
  404e77:	c9                   	leaveq 
  404e78:	c3                   	retq   
  404e79:	90                   	nop

0000000000404e7a <_ZN5boost6system10error_codeC1EiRKNS0_14error_categoryE>:
  404e7a:	55                   	push   %rbp
  404e7b:	48 89 e5             	mov    %rsp,%rbp
  404e7e:	48 89 7d f8          	mov    %rdi,-0x8(%rbp)
  404e82:	89 75 f4             	mov    %esi,-0xc(%rbp)
  404e85:	48 89 55 e8          	mov    %rdx,-0x18(%rbp)
  404e89:	48 8b 45 f8          	mov    -0x8(%rbp),%rax
  404e8d:	8b 55 f4             	mov    -0xc(%rbp),%edx
  404e90:	89 10                	mov    %edx,(%rax)
  404e92:	48 8b 45 f8          	mov    -0x8(%rbp),%rax
  404e96:	48 8b 55 e8          	mov    -0x18(%rbp),%rdx
  404e9a:	48 89 50 08          	mov    %rdx,0x8(%rax)
  404e9e:	90                   	nop
  404e9f:	5d                   	pop    %rbp
  404ea0:	c3                   	retq   
  404ea1:	90                   	nop

0000000000404ea2 <_ZNK5boost6system10error_code5valueEv>:
  404ea2:	55                   	push   %rbp
  404ea3:	48 89 e5             	mov    %rsp,%rbp
  404ea6:	48 89 7d f8          	mov    %rdi,-0x8(%rbp)
  404eaa:	48 8b 45 f8          	mov    -0x8(%rbp),%rax
  404eae:	8b 00                	mov    (%rax),%eax
  404eb0:	5d                   	pop    %rbp
  404eb1:	c3                   	retq   

0000000000404eb2 <_ZNK5boost6system10error_code8categoryEv>:
  404eb2:	55                   	push   %rbp
  404eb3:	48 89 e5             	mov    %rsp,%rbp
  404eb6:	48 89 7d f8          	mov    %rdi,-0x8(%rbp)
  404eba:	48 8b 45 f8          	mov    -0x8(%rbp),%rax
  404ebe:	48 8b 40 08          	mov    0x8(%rax),%rax
  404ec2:	5d                   	pop    %rbp
  404ec3:	c3                   	retq   

0000000000404ec4 <_ZNK5boost6system10error_code7messageB5cxx11Ev>:
  404ec4:	55                   	push   %rbp
  404ec5:	48 89 e5             	mov    %rsp,%rbp
  404ec8:	53                   	push   %rbx
  404ec9:	48 83 ec 28          	sub    $0x28,%rsp
  404ecd:	48 89 7d d8          	mov    %rdi,-0x28(%rbp)
  404ed1:	48 89 75 d0          	mov    %rsi,-0x30(%rbp)
  404ed5:	64 48 8b 04 25 28 00 	mov    %fs:0x28,%rax
  404edc:	00 00 
  404ede:	48 89 45 e8          	mov    %rax,-0x18(%rbp)
  404ee2:	31 c0                	xor    %eax,%eax
  404ee4:	48 8b 45 d0          	mov    -0x30(%rbp),%rax
  404ee8:	48 8b 40 08          	mov    0x8(%rax),%rax
  404eec:	48 8b 00             	mov    (%rax),%rax
  404eef:	48 83 c0 18          	add    $0x18,%rax
  404ef3:	48 8b 18             	mov    (%rax),%rbx
  404ef6:	48 8b 45 d0          	mov    -0x30(%rbp),%rax
  404efa:	48 89 c7             	mov    %rax,%rdi
  404efd:	e8 a0 ff ff ff       	callq  404ea2 <_ZNK5boost6system10error_code5valueEv>
  404f02:	89 c2                	mov    %eax,%edx
  404f04:	48 8b 45 d0          	mov    -0x30(%rbp),%rax
  404f08:	48 8b 48 08          	mov    0x8(%rax),%rcx
  404f0c:	48 8b 45 d8          	mov    -0x28(%rbp),%rax
  404f10:	48 89 ce             	mov    %rcx,%rsi
  404f13:	48 89 c7             	mov    %rax,%rdi
  404f16:	ff d3                	callq  *%rbx
  404f18:	48 8b 45 d8          	mov    -0x28(%rbp),%rax
  404f1c:	48 8b 4d e8          	mov    -0x18(%rbp),%rcx
  404f20:	64 48 33 0c 25 28 00 	xor    %fs:0x28,%rcx
  404f27:	00 00 
  404f29:	74 05                	je     404f30 <_ZNK5boost6system10error_code7messageB5cxx11Ev+0x6c>
  404f2b:	e8 00 e9 ff ff       	callq  403830 <__stack_chk_fail@plt>
  404f30:	48 83 c4 28          	add    $0x28,%rsp
  404f34:	5b                   	pop    %rbx
  404f35:	5d                   	pop    %rbp
  404f36:	c3                   	retq   

0000000000404f37 <_ZN5boost6system10error_code21unspecified_bool_trueEv>:
  404f37:	55                   	push   %rbp
  404f38:	48 89 e5             	mov    %rsp,%rbp
  404f3b:	90                   	nop
  404f3c:	5d                   	pop    %rbp
  404f3d:	c3                   	retq   

0000000000404f3e <_ZNK5boost6system10error_codecvPFvvEEv>:
  404f3e:	55                   	push   %rbp
  404f3f:	48 89 e5             	mov    %rsp,%rbp
  404f42:	48 89 7d f8          	mov    %rdi,-0x8(%rbp)
  404f46:	48 8b 45 f8          	mov    -0x8(%rbp),%rax
  404f4a:	8b 00                	mov    (%rax),%eax
  404f4c:	85 c0                	test   %eax,%eax
  404f4e:	74 07                	je     404f57 <_ZNK5boost6system10error_codecvPFvvEEv+0x19>
  404f50:	b8 37 4f 40 00       	mov    $0x404f37,%eax
  404f55:	eb 05                	jmp    404f5c <_ZNK5boost6system10error_codecvPFvvEEv+0x1e>
  404f57:	b8 00 00 00 00       	mov    $0x0,%eax
  404f5c:	5d                   	pop    %rbp
  404f5d:	c3                   	retq   

0000000000404f5e <_ZNK5boost6system10error_codentEv>:
  404f5e:	55                   	push   %rbp
  404f5f:	48 89 e5             	mov    %rsp,%rbp
  404f62:	48 89 7d f8          	mov    %rdi,-0x8(%rbp)
  404f66:	48 8b 45 f8          	mov    -0x8(%rbp),%rax
  404f6a:	8b 00                	mov    (%rax),%eax
  404f6c:	85 c0                	test   %eax,%eax
  404f6e:	0f 94 c0             	sete   %al
  404f71:	5d                   	pop    %rbp
  404f72:	c3                   	retq   

0000000000404f73 <_ZN5boost6systemeqERKNS0_10error_codeES3_>:
  404f73:	55                   	push   %rbp
  404f74:	48 89 e5             	mov    %rsp,%rbp
  404f77:	48 89 7d f8          	mov    %rdi,-0x8(%rbp)
  404f7b:	48 89 75 f0          	mov    %rsi,-0x10(%rbp)
  404f7f:	48 8b 45 f8          	mov    -0x8(%rbp),%rax
  404f83:	48 8b 50 08          	mov    0x8(%rax),%rdx
  404f87:	48 8b 45 f0          	mov    -0x10(%rbp),%rax
  404f8b:	48 8b 40 08          	mov    0x8(%rax),%rax
  404f8f:	48 39 c2             	cmp    %rax,%rdx
  404f92:	75 17                	jne    404fab <_ZN5boost6systemeqERKNS0_10error_codeES3_+0x38>
  404f94:	48 8b 45 f8          	mov    -0x8(%rbp),%rax
  404f98:	8b 10                	mov    (%rax),%edx
  404f9a:	48 8b 45 f0          	mov    -0x10(%rbp),%rax
  404f9e:	8b 00                	mov    (%rax),%eax
  404fa0:	39 c2                	cmp    %eax,%edx
  404fa2:	75 07                	jne    404fab <_ZN5boost6systemeqERKNS0_10error_codeES3_+0x38>
  404fa4:	b8 01 00 00 00       	mov    $0x1,%eax
  404fa9:	eb 05                	jmp    404fb0 <_ZN5boost6systemeqERKNS0_10error_codeES3_+0x3d>
  404fab:	b8 00 00 00 00       	mov    $0x0,%eax
  404fb0:	5d                   	pop    %rbp
  404fb1:	c3                   	retq   

0000000000404fb2 <_ZN5boost6systemneERKNS0_10error_codeES3_>:
  404fb2:	55                   	push   %rbp
  404fb3:	48 89 e5             	mov    %rsp,%rbp
  404fb6:	48 83 ec 10          	sub    $0x10,%rsp
  404fba:	48 89 7d f8          	mov    %rdi,-0x8(%rbp)
  404fbe:	48 89 75 f0          	mov    %rsi,-0x10(%rbp)
  404fc2:	48 8b 55 f0          	mov    -0x10(%rbp),%rdx
  404fc6:	48 8b 45 f8          	mov    -0x8(%rbp),%rax
  404fca:	48 89 d6             	mov    %rdx,%rsi
  404fcd:	48 89 c7             	mov    %rax,%rdi
  404fd0:	e8 9e ff ff ff       	callq  404f73 <_ZN5boost6systemeqERKNS0_10error_codeES3_>
  404fd5:	83 f0 01             	xor    $0x1,%eax
  404fd8:	c9                   	leaveq 
  404fd9:	c3                   	retq   

0000000000404fda <_ZNK5boost6system14error_category23default_error_conditionEi>:
  404fda:	55                   	push   %rbp
  404fdb:	48 89 e5             	mov    %rsp,%rbp
  404fde:	53                   	push   %rbx
  404fdf:	48 83 ec 38          	sub    $0x38,%rsp
  404fe3:	48 89 7d c8          	mov    %rdi,-0x38(%rbp)
  404fe7:	89 75 c4             	mov    %esi,-0x3c(%rbp)
  404fea:	64 48 8b 04 25 28 00 	mov    %fs:0x28,%rax
  404ff1:	00 00 
  404ff3:	48 89 45 e8          	mov    %rax,-0x18(%rbp)
  404ff7:	31 c0                	xor    %eax,%eax
  404ff9:	48 8b 55 c8          	mov    -0x38(%rbp),%rdx
  404ffd:	8b 4d c4             	mov    -0x3c(%rbp),%ecx
  405000:	48 8d 45 d0          	lea    -0x30(%rbp),%rax
  405004:	89 ce                	mov    %ecx,%esi
  405006:	48 89 c7             	mov    %rax,%rdi
  405009:	e8 dc fd ff ff       	callq  404dea <_ZN5boost6system15error_conditionC1EiRKNS0_14error_categoryE>
  40500e:	48 8b 45 d0          	mov    -0x30(%rbp),%rax
  405012:	48 8b 55 d8          	mov    -0x28(%rbp),%rdx
  405016:	48 89 c1             	mov    %rax,%rcx
  405019:	48 89 d3             	mov    %rdx,%rbx
  40501c:	89 c8                	mov    %ecx,%eax
  40501e:	48 8b 5d e8          	mov    -0x18(%rbp),%rbx
  405022:	64 48 33 1c 25 28 00 	xor    %fs:0x28,%rbx
  405029:	00 00 
  40502b:	74 05                	je     405032 <_ZNK5boost6system14error_category23default_error_conditionEi+0x58>
  40502d:	e8 fe e7 ff ff       	callq  403830 <__stack_chk_fail@plt>
  405032:	48 83 c4 38          	add    $0x38,%rsp
  405036:	5b                   	pop    %rbx
  405037:	5d                   	pop    %rbp
  405038:	c3                   	retq   
  405039:	90                   	nop

000000000040503a <_ZNK5boost6system14error_category10equivalentEiRKNS0_15error_conditionE>:
  40503a:	55                   	push   %rbp
  40503b:	48 89 e5             	mov    %rsp,%rbp
  40503e:	48 83 ec 40          	sub    $0x40,%rsp
  405042:	48 89 7d d8          	mov    %rdi,-0x28(%rbp)
  405046:	89 75 d4             	mov    %esi,-0x2c(%rbp)
  405049:	48 89 55 c8          	mov    %rdx,-0x38(%rbp)
  40504d:	64 48 8b 04 25 28 00 	mov    %fs:0x28,%rax
  405054:	00 00 
  405056:	48 89 45 f8          	mov    %rax,-0x8(%rbp)
  40505a:	31 c0                	xor    %eax,%eax
  40505c:	48 8b 45 d8          	mov    -0x28(%rbp),%rax
  405060:	48 8b 00             	mov    (%rax),%rax
  405063:	48 83 c0 20          	add    $0x20,%rax
  405067:	48 8b 00             	mov    (%rax),%rax
  40506a:	8b 4d d4             	mov    -0x2c(%rbp),%ecx
  40506d:	48 8b 55 d8          	mov    -0x28(%rbp),%rdx
  405071:	89 ce                	mov    %ecx,%esi
  405073:	48 89 d7             	mov    %rdx,%rdi
  405076:	ff d0                	callq  *%rax
  405078:	89 c1                	mov    %eax,%ecx
  40507a:	48 89 d0             	mov    %rdx,%rax
  40507d:	89 4d e0             	mov    %ecx,-0x20(%rbp)
  405080:	48 89 45 e8          	mov    %rax,-0x18(%rbp)
  405084:	48 8b 55 c8          	mov    -0x38(%rbp),%rdx
  405088:	48 8d 45 e0          	lea    -0x20(%rbp),%rax
  40508c:	48 89 d6             	mov    %rdx,%rsi
  40508f:	48 89 c7             	mov    %rax,%rdi
  405092:	e8 7a fd ff ff       	callq  404e11 <_ZN5boost6systemeqERKNS0_15error_conditionES3_>
  405097:	48 8b 75 f8          	mov    -0x8(%rbp),%rsi
  40509b:	64 48 33 34 25 28 00 	xor    %fs:0x28,%rsi
  4050a2:	00 00 
  4050a4:	74 05                	je     4050ab <_ZNK5boost6system14error_category10equivalentEiRKNS0_15error_conditionE+0x71>
  4050a6:	e8 85 e7 ff ff       	callq  403830 <__stack_chk_fail@plt>
  4050ab:	c9                   	leaveq 
  4050ac:	c3                   	retq   
  4050ad:	90                   	nop

00000000004050ae <_ZNK5boost6system14error_category10equivalentERKNS0_10error_codeEi>:
  4050ae:	55                   	push   %rbp
  4050af:	48 89 e5             	mov    %rsp,%rbp
  4050b2:	48 83 ec 20          	sub    $0x20,%rsp
  4050b6:	48 89 7d f8          	mov    %rdi,-0x8(%rbp)
  4050ba:	48 89 75 f0          	mov    %rsi,-0x10(%rbp)
  4050be:	89 55 ec             	mov    %edx,-0x14(%rbp)
  4050c1:	48 8b 45 f0          	mov    -0x10(%rbp),%rax
  4050c5:	48 89 c7             	mov    %rax,%rdi
  4050c8:	e8 e5 fd ff ff       	callq  404eb2 <_ZNK5boost6system10error_code8categoryEv>
  4050cd:	48 89 c2             	mov    %rax,%rdx
  4050d0:	48 8b 45 f8          	mov    -0x8(%rbp),%rax
  4050d4:	48 89 d6             	mov    %rdx,%rsi
  4050d7:	48 89 c7             	mov    %rax,%rdi
  4050da:	e8 f1 fc ff ff       	callq  404dd0 <_ZNK5boost6system14error_categoryeqERKS1_>
  4050df:	84 c0                	test   %al,%al
  4050e1:	74 18                	je     4050fb <_ZNK5boost6system14error_category10equivalentERKNS0_10error_codeEi+0x4d>
  4050e3:	48 8b 45 f0          	mov    -0x10(%rbp),%rax
  4050e7:	48 89 c7             	mov    %rax,%rdi
  4050ea:	e8 b3 fd ff ff       	callq  404ea2 <_ZNK5boost6system10error_code5valueEv>
  4050ef:	3b 45 ec             	cmp    -0x14(%rbp),%eax
  4050f2:	75 07                	jne    4050fb <_ZNK5boost6system14error_category10equivalentERKNS0_10error_codeEi+0x4d>
  4050f4:	b8 01 00 00 00       	mov    $0x1,%eax
  4050f9:	eb 05                	jmp    405100 <_ZNK5boost6system14error_category10equivalentERKNS0_10error_codeEi+0x52>
  4050fb:	b8 00 00 00 00       	mov    $0x0,%eax
  405100:	c9                   	leaveq 
  405101:	c3                   	retq   

0000000000405102 <_ZN5boost4asio10io_service2idC1Ev>:
  405102:	55                   	push   %rbp
  405103:	48 89 e5             	mov    %rsp,%rbp
  405106:	48 83 ec 10          	sub    $0x10,%rsp
  40510a:	48 89 7d f8          	mov    %rdi,-0x8(%rbp)
  40510e:	48 8b 45 f8          	mov    -0x8(%rbp),%rax
  405112:	48 89 c7             	mov    %rax,%rdi
  405115:	e8 d8 fb ff ff       	callq  404cf2 <_ZN5boost4asio6detail11noncopyableC1Ev>
  40511a:	90                   	nop
  40511b:	c9                   	leaveq 
  40511c:	c3                   	retq   
  40511d:	90                   	nop

000000000040511e <_ZN5boost4asio10io_service7service3keyC1Ev>:
  40511e:	55                   	push   %rbp
  40511f:	48 89 e5             	mov    %rsp,%rbp
  405122:	48 89 7d f8          	mov    %rdi,-0x8(%rbp)
  405126:	48 8b 45 f8          	mov    -0x8(%rbp),%rax
  40512a:	48 c7 00 00 00 00 00 	movq   $0x0,(%rax)
  405131:	48 8b 45 f8          	mov    -0x8(%rbp),%rax
  405135:	48 c7 40 08 00 00 00 	movq   $0x0,0x8(%rax)
  40513c:	00 
  40513d:	90                   	nop
  40513e:	5d                   	pop    %rbp
  40513f:	c3                   	retq   

0000000000405140 <_ZN5boost4asio6detail11posix_mutexD1Ev>:
  405140:	55                   	push   %rbp
  405141:	48 89 e5             	mov    %rsp,%rbp
  405144:	48 83 ec 10          	sub    $0x10,%rsp
  405148:	48 89 7d f8          	mov    %rdi,-0x8(%rbp)
  40514c:	48 8b 45 f8          	mov    -0x8(%rbp),%rax
  405150:	48 89 c7             	mov    %rax,%rdi
  405153:	e8 f8 e6 ff ff       	callq  403850 <pthread_mutex_destroy@plt>
  405158:	48 8b 45 f8          	mov    -0x8(%rbp),%rax
  40515c:	48 89 c7             	mov    %rax,%rdi
  40515f:	e8 9a fb ff ff       	callq  404cfe <_ZN5boost4asio6detail11noncopyableD1Ev>
  405164:	90                   	nop
  405165:	c9                   	leaveq 
  405166:	c3                   	retq   
  405167:	90                   	nop

0000000000405168 <_ZN5boost4asio6detail11posix_mutex4lockEv>:
  405168:	55                   	push   %rbp
  405169:	48 89 e5             	mov    %rsp,%rbp
  40516c:	48 83 ec 10          	sub    $0x10,%rsp
  405170:	48 89 7d f8          	mov    %rdi,-0x8(%rbp)
  405174:	48 8b 45 f8          	mov    -0x8(%rbp),%rax
  405178:	48 89 c7             	mov    %rax,%rdi
  40517b:	e8 70 e8 ff ff       	callq  4039f0 <pthread_mutex_lock@plt>
  405180:	90                   	nop
  405181:	c9                   	leaveq 
  405182:	c3                   	retq   
  405183:	90                   	nop

0000000000405184 <_ZN5boost4asio6detail11posix_mutex6unlockEv>:
  405184:	55                   	push   %rbp
  405185:	48 89 e5             	mov    %rsp,%rbp
  405188:	48 83 ec 10          	sub    $0x10,%rsp
  40518c:	48 89 7d f8          	mov    %rdi,-0x8(%rbp)
  405190:	48 8b 45 f8          	mov    -0x8(%rbp),%rax
  405194:	48 89 c7             	mov    %rax,%rdi
  405197:	e8 34 e5 ff ff       	callq  4036d0 <pthread_mutex_unlock@plt>
  40519c:	90                   	nop
  40519d:	c9                   	leaveq 
  40519e:	c3                   	retq   

000000000040519f <_ZN5boost4asio6detail11throw_errorERKNS_6system10error_codeE>:
  40519f:	55                   	push   %rbp
  4051a0:	48 89 e5             	mov    %rsp,%rbp
  4051a3:	48 83 ec 10          	sub    $0x10,%rsp
  4051a7:	48 89 7d f8          	mov    %rdi,-0x8(%rbp)
  4051ab:	48 8b 45 f8          	mov    -0x8(%rbp),%rax
  4051af:	48 89 c7             	mov    %rax,%rdi
  4051b2:	e8 87 fd ff ff       	callq  404f3e <_ZNK5boost6system10error_codecvPFvvEEv>
  4051b7:	48 85 c0             	test   %rax,%rax
  4051ba:	0f 95 c0             	setne  %al
  4051bd:	84 c0                	test   %al,%al
  4051bf:	74 0c                	je     4051cd <_ZN5boost4asio6detail11throw_errorERKNS_6system10error_codeE+0x2e>
  4051c1:	48 8b 45 f8          	mov    -0x8(%rbp),%rax
  4051c5:	48 89 c7             	mov    %rax,%rdi
  4051c8:	e8 e2 04 00 00       	callq  4056af <_ZN5boost4asio6detail14do_throw_errorERKNS_6system10error_codeE>
  4051cd:	90                   	nop
  4051ce:	c9                   	leaveq 
  4051cf:	c3                   	retq   

00000000004051d0 <_ZN5boost4asio6detail11throw_errorERKNS_6system10error_codeEPKc>:
  4051d0:	55                   	push   %rbp
  4051d1:	48 89 e5             	mov    %rsp,%rbp
  4051d4:	48 83 ec 10          	sub    $0x10,%rsp
  4051d8:	48 89 7d f8          	mov    %rdi,-0x8(%rbp)
  4051dc:	48 89 75 f0          	mov    %rsi,-0x10(%rbp)
  4051e0:	48 8b 45 f8          	mov    -0x8(%rbp),%rax
  4051e4:	48 89 c7             	mov    %rax,%rdi
  4051e7:	e8 52 fd ff ff       	callq  404f3e <_ZNK5boost6system10error_codecvPFvvEEv>
  4051ec:	48 85 c0             	test   %rax,%rax
  4051ef:	0f 95 c0             	setne  %al
  4051f2:	84 c0                	test   %al,%al
  4051f4:	74 13                	je     405209 <_ZN5boost4asio6detail11throw_errorERKNS_6system10error_codeEPKc+0x39>
  4051f6:	48 8b 55 f0          	mov    -0x10(%rbp),%rdx
  4051fa:	48 8b 45 f8          	mov    -0x8(%rbp),%rax
  4051fe:	48 89 d6             	mov    %rdx,%rsi
  405201:	48 89 c7             	mov    %rax,%rdi
  405204:	e8 00 05 00 00       	callq  405709 <_ZN5boost4asio6detail14do_throw_errorERKNS_6system10error_codeEPKc>
  405209:	90                   	nop
  40520a:	c9                   	leaveq 
  40520b:	c3                   	retq   

000000000040520c <_ZN5boost9exceptionC1Ev>:
  40520c:	55                   	push   %rbp
  40520d:	48 89 e5             	mov    %rsp,%rbp
  405210:	48 83 ec 10          	sub    $0x10,%rsp
  405214:	48 89 7d f8          	mov    %rdi,-0x8(%rbp)
  405218:	ba 98 5c 41 00       	mov    $0x415c98,%edx
  40521d:	48 8b 45 f8          	mov    -0x8(%rbp),%rax
  405221:	48 89 10             	mov    %rdx,(%rax)
  405224:	48 8b 45 f8          	mov    -0x8(%rbp),%rax
  405228:	48 83 c0 08          	add    $0x8,%rax
  40522c:	48 89 c7             	mov    %rax,%rdi
  40522f:	e8 e8 61 00 00       	callq  40b41c <_ZN5boost16exception_detail12refcount_ptrINS0_20error_info_containerEEC1Ev>
  405234:	48 8b 45 f8          	mov    -0x8(%rbp),%rax
  405238:	48 c7 40 10 00 00 00 	movq   $0x0,0x10(%rax)
  40523f:	00 
  405240:	48 8b 45 f8          	mov    -0x8(%rbp),%rax
  405244:	48 c7 40 18 00 00 00 	movq   $0x0,0x18(%rax)
  40524b:	00 
  40524c:	48 8b 45 f8          	mov    -0x8(%rbp),%rax
  405250:	c7 40 20 ff ff ff ff 	movl   $0xffffffff,0x20(%rax)
  405257:	90                   	nop
  405258:	c9                   	leaveq 
  405259:	c3                   	retq   

000000000040525a <_ZN5boost9exceptionD1Ev>:
  40525a:	55                   	push   %rbp
  40525b:	48 89 e5             	mov    %rsp,%rbp
  40525e:	48 83 ec 10          	sub    $0x10,%rsp
  405262:	48 89 7d f8          	mov    %rdi,-0x8(%rbp)
  405266:	ba 98 5c 41 00       	mov    $0x415c98,%edx
  40526b:	48 8b 45 f8          	mov    -0x8(%rbp),%rax
  40526f:	48 89 10             	mov    %rdx,(%rax)
  405272:	48 8b 45 f8          	mov    -0x8(%rbp),%rax
  405276:	48 83 c0 08          	add    $0x8,%rax
  40527a:	48 89 c7             	mov    %rax,%rdi
  40527d:	e8 b0 61 00 00       	callq  40b432 <_ZN5boost16exception_detail12refcount_ptrINS0_20error_info_containerEED1Ev>
  405282:	b8 00 00 00 00       	mov    $0x0,%eax
  405287:	85 c0                	test   %eax,%eax
  405289:	74 0c                	je     405297 <_ZN5boost9exceptionD1Ev+0x3d>
  40528b:	48 8b 45 f8          	mov    -0x8(%rbp),%rax
  40528f:	48 89 c7             	mov    %rax,%rdi
  405292:	e8 c9 e4 ff ff       	callq  403760 <_ZdlPv@plt>
  405297:	c9                   	leaveq 
  405298:	c3                   	retq   
  405299:	90                   	nop

000000000040529a <_ZN5boost9exceptionD0Ev>:
  40529a:	55                   	push   %rbp
  40529b:	48 89 e5             	mov    %rsp,%rbp
  40529e:	48 83 ec 10          	sub    $0x10,%rsp
  4052a2:	48 89 7d f8          	mov    %rdi,-0x8(%rbp)
  4052a6:	48 8b 45 f8          	mov    -0x8(%rbp),%rax
  4052aa:	48 89 c7             	mov    %rax,%rdi
  4052ad:	e8 a8 ff ff ff       	callq  40525a <_ZN5boost9exceptionD1Ev>
  4052b2:	48 8b 45 f8          	mov    -0x8(%rbp),%rax
  4052b6:	48 89 c7             	mov    %rax,%rdi
  4052b9:	e8 a2 e4 ff ff       	callq  403760 <_ZdlPv@plt>
  4052be:	c9                   	leaveq 
  4052bf:	c3                   	retq   

00000000004052c0 <_ZN5boost16exception_detail10clone_baseD1Ev>:
  4052c0:	55                   	push   %rbp
  4052c1:	48 89 e5             	mov    %rsp,%rbp
  4052c4:	48 83 ec 10          	sub    $0x10,%rsp
  4052c8:	48 89 7d f8          	mov    %rdi,-0x8(%rbp)
  4052cc:	ba 68 5c 41 00       	mov    $0x415c68,%edx
  4052d1:	48 8b 45 f8          	mov    -0x8(%rbp),%rax
  4052d5:	48 89 10             	mov    %rdx,(%rax)
  4052d8:	b8 00 00 00 00       	mov    $0x0,%eax
  4052dd:	85 c0                	test   %eax,%eax
  4052df:	74 0c                	je     4052ed <_ZN5boost16exception_detail10clone_baseD1Ev+0x2d>
  4052e1:	48 8b 45 f8          	mov    -0x8(%rbp),%rax
  4052e5:	48 89 c7             	mov    %rax,%rdi
  4052e8:	e8 73 e4 ff ff       	callq  403760 <_ZdlPv@plt>
  4052ed:	c9                   	leaveq 
  4052ee:	c3                   	retq   
  4052ef:	90                   	nop

00000000004052f0 <_ZN5boost16exception_detail10clone_baseD0Ev>:
  4052f0:	55                   	push   %rbp
  4052f1:	48 89 e5             	mov    %rsp,%rbp
  4052f4:	48 83 ec 10          	sub    $0x10,%rsp
  4052f8:	48 89 7d f8          	mov    %rdi,-0x8(%rbp)
  4052fc:	48 8b 45 f8          	mov    -0x8(%rbp),%rax
  405300:	48 89 c7             	mov    %rax,%rdi
  405303:	e8 b8 ff ff ff       	callq  4052c0 <_ZN5boost16exception_detail10clone_baseD1Ev>
  405308:	48 8b 45 f8          	mov    -0x8(%rbp),%rax
  40530c:	48 89 c7             	mov    %rax,%rdi
  40530f:	e8 4c e4 ff ff       	callq  403760 <_ZdlPv@plt>
  405314:	c9                   	leaveq 
  405315:	c3                   	retq   

0000000000405316 <_ZN5boost16exception_detail20copy_boost_exceptionEPNS_9exceptionEPKS1_>:
  405316:	55                   	push   %rbp
  405317:	48 89 e5             	mov    %rsp,%rbp
  40531a:	53                   	push   %rbx
  40531b:	48 83 ec 48          	sub    $0x48,%rsp
  40531f:	48 89 7d b8          	mov    %rdi,-0x48(%rbp)
  405323:	48 89 75 b0          	mov    %rsi,-0x50(%rbp)
  405327:	64 48 8b 04 25 28 00 	mov    %fs:0x28,%rax
  40532e:	00 00 
  405330:	48 89 45 e8          	mov    %rax,-0x18(%rbp)
  405334:	31 c0                	xor    %eax,%eax
  405336:	48 8d 45 c0          	lea    -0x40(%rbp),%rax
  40533a:	48 89 c7             	mov    %rax,%rdi
  40533d:	e8 da 60 00 00       	callq  40b41c <_ZN5boost16exception_detail12refcount_ptrINS0_20error_info_containerEEC1Ev>
  405342:	48 8b 45 b0          	mov    -0x50(%rbp),%rax
  405346:	48 83 c0 08          	add    $0x8,%rax
  40534a:	48 89 c7             	mov    %rax,%rdi
  40534d:	e8 fc 60 00 00       	callq  40b44e <_ZNK5boost16exception_detail12refcount_ptrINS0_20error_info_containerEE3getEv>
  405352:	48 89 45 e0          	mov    %rax,-0x20(%rbp)
  405356:	48 83 7d e0 00       	cmpq   $0x0,-0x20(%rbp)
  40535b:	74 3d                	je     40539a <_ZN5boost16exception_detail20copy_boost_exceptionEPNS_9exceptionEPKS1_+0x84>
  40535d:	48 8b 45 e0          	mov    -0x20(%rbp),%rax
  405361:	48 8b 00             	mov    (%rax),%rax
  405364:	48 83 c0 28          	add    $0x28,%rax
  405368:	48 8b 00             	mov    (%rax),%rax
  40536b:	48 8d 55 d0          	lea    -0x30(%rbp),%rdx
  40536f:	48 8b 4d e0          	mov    -0x20(%rbp),%rcx
  405373:	48 89 ce             	mov    %rcx,%rsi
  405376:	48 89 d7             	mov    %rdx,%rdi
  405379:	ff d0                	callq  *%rax
  40537b:	48 8d 55 d0          	lea    -0x30(%rbp),%rdx
  40537f:	48 8d 45 c0          	lea    -0x40(%rbp),%rax
  405383:	48 89 d6             	mov    %rdx,%rsi
  405386:	48 89 c7             	mov    %rax,%rdi
  405389:	e8 d2 60 00 00       	callq  40b460 <_ZN5boost16exception_detail12refcount_ptrINS0_20error_info_containerEEaSERKS3_>
  40538e:	48 8d 45 d0          	lea    -0x30(%rbp),%rax
  405392:	48 89 c7             	mov    %rax,%rdi
  405395:	e8 98 60 00 00       	callq  40b432 <_ZN5boost16exception_detail12refcount_ptrINS0_20error_info_containerEED1Ev>
  40539a:	48 8b 45 b0          	mov    -0x50(%rbp),%rax
  40539e:	48 8b 50 18          	mov    0x18(%rax),%rdx
  4053a2:	48 8b 45 b8          	mov    -0x48(%rbp),%rax
  4053a6:	48 89 50 18          	mov    %rdx,0x18(%rax)
  4053aa:	48 8b 45 b0          	mov    -0x50(%rbp),%rax
  4053ae:	8b 50 20             	mov    0x20(%rax),%edx
  4053b1:	48 8b 45 b8          	mov    -0x48(%rbp),%rax
  4053b5:	89 50 20             	mov    %edx,0x20(%rax)
  4053b8:	48 8b 45 b0          	mov    -0x50(%rbp),%rax
  4053bc:	48 8b 50 10          	mov    0x10(%rax),%rdx
  4053c0:	48 8b 45 b8          	mov    -0x48(%rbp),%rax
  4053c4:	48 89 50 10          	mov    %rdx,0x10(%rax)
  4053c8:	48 8b 45 b8          	mov    -0x48(%rbp),%rax
  4053cc:	48 8d 50 08          	lea    0x8(%rax),%rdx
  4053d0:	48 8d 45 c0          	lea    -0x40(%rbp),%rax
  4053d4:	48 89 c6             	mov    %rax,%rsi
  4053d7:	48 89 d7             	mov    %rdx,%rdi
  4053da:	e8 81 60 00 00       	callq  40b460 <_ZN5boost16exception_detail12refcount_ptrINS0_20error_info_containerEEaSERKS3_>
  4053df:	48 8d 45 c0          	lea    -0x40(%rbp),%rax
  4053e3:	48 89 c7             	mov    %rax,%rdi
  4053e6:	e8 47 60 00 00       	callq  40b432 <_ZN5boost16exception_detail12refcount_ptrINS0_20error_info_containerEED1Ev>
  4053eb:	90                   	nop
  4053ec:	48 8b 45 e8          	mov    -0x18(%rbp),%rax
  4053f0:	64 48 33 04 25 28 00 	xor    %fs:0x28,%rax
  4053f7:	00 00 
  4053f9:	74 32                	je     40542d <_ZN5boost16exception_detail20copy_boost_exceptionEPNS_9exceptionEPKS1_+0x117>
  4053fb:	eb 2b                	jmp    405428 <_ZN5boost16exception_detail20copy_boost_exceptionEPNS_9exceptionEPKS1_+0x112>
  4053fd:	48 89 c3             	mov    %rax,%rbx
  405400:	48 8d 45 d0          	lea    -0x30(%rbp),%rax
  405404:	48 89 c7             	mov    %rax,%rdi
  405407:	e8 26 60 00 00       	callq  40b432 <_ZN5boost16exception_detail12refcount_ptrINS0_20error_info_containerEED1Ev>
  40540c:	eb 03                	jmp    405411 <_ZN5boost16exception_detail20copy_boost_exceptionEPNS_9exceptionEPKS1_+0xfb>
  40540e:	48 89 c3             	mov    %rax,%rbx
  405411:	48 8d 45 c0          	lea    -0x40(%rbp),%rax
  405415:	48 89 c7             	mov    %rax,%rdi
  405418:	e8 15 60 00 00       	callq  40b432 <_ZN5boost16exception_detail12refcount_ptrINS0_20error_info_containerEED1Ev>
  40541d:	48 89 d8             	mov    %rbx,%rax
  405420:	48 89 c7             	mov    %rax,%rdi
  405423:	e8 28 e7 ff ff       	callq  403b50 <_Unwind_Resume@plt>
  405428:	e8 03 e4 ff ff       	callq  403830 <__stack_chk_fail@plt>
  40542d:	48 83 c4 48          	add    $0x48,%rsp
  405431:	5b                   	pop    %rbx
  405432:	5d                   	pop    %rbp
  405433:	c3                   	retq   

0000000000405434 <_ZN5boost36throw_exception_assert_compatibilityERKSt9exception>:
  405434:	55                   	push   %rbp
  405435:	48 89 e5             	mov    %rsp,%rbp
  405438:	48 89 7d f8          	mov    %rdi,-0x8(%rbp)
  40543c:	90                   	nop
  40543d:	5d                   	pop    %rbp
  40543e:	c3                   	retq   
  40543f:	90                   	nop

0000000000405440 <_ZN5boost6system12system_errorC1ENS0_10error_codeE>:
  405440:	55                   	push   %rbp
  405441:	48 89 e5             	mov    %rsp,%rbp
  405444:	48 83 ec 20          	sub    $0x20,%rsp
  405448:	48 89 7d f8          	mov    %rdi,-0x8(%rbp)
  40544c:	89 f0                	mov    %esi,%eax
  40544e:	48 89 d1             	mov    %rdx,%rcx
  405451:	48 89 ca             	mov    %rcx,%rdx
  405454:	48 89 45 e0          	mov    %rax,-0x20(%rbp)
  405458:	48 89 55 e8          	mov    %rdx,-0x18(%rbp)
  40545c:	48 8b 45 f8          	mov    -0x8(%rbp),%rax
  405460:	be ea 4c 41 00       	mov    $0x414cea,%esi
  405465:	48 89 c7             	mov    %rax,%rdi
  405468:	e8 73 e7 ff ff       	callq  403be0 <_ZNSt13runtime_errorC2EPKc@plt>
  40546d:	ba 40 5c 41 00       	mov    $0x415c40,%edx
  405472:	48 8b 45 f8          	mov    -0x8(%rbp),%rax
  405476:	48 89 10             	mov    %rdx,(%rax)
  405479:	48 8b 4d f8          	mov    -0x8(%rbp),%rcx
  40547d:	48 8b 45 e0          	mov    -0x20(%rbp),%rax
  405481:	48 8b 55 e8          	mov    -0x18(%rbp),%rdx
  405485:	48 89 41 10          	mov    %rax,0x10(%rcx)
  405489:	48 89 51 18          	mov    %rdx,0x18(%rcx)
  40548d:	48 8b 45 f8          	mov    -0x8(%rbp),%rax
  405491:	48 83 c0 20          	add    $0x20,%rax
  405495:	48 89 c7             	mov    %rax,%rdi
  405498:	e8 d3 e4 ff ff       	callq  403970 <_ZNSt7__cxx1112basic_stringIcSt11char_traitsIcESaIcEEC1Ev@plt>
  40549d:	90                   	nop
  40549e:	c9                   	leaveq 
  40549f:	c3                   	retq   

00000000004054a0 <_ZN5boost6system12system_errorC1ENS0_10error_codeEPKc>:
  4054a0:	55                   	push   %rbp
  4054a1:	48 89 e5             	mov    %rsp,%rbp
  4054a4:	48 83 ec 20          	sub    $0x20,%rsp
  4054a8:	48 89 7d f8          	mov    %rdi,-0x8(%rbp)
  4054ac:	89 f0                	mov    %esi,%eax
  4054ae:	48 89 d6             	mov    %rdx,%rsi
  4054b1:	48 89 f2             	mov    %rsi,%rdx
  4054b4:	48 89 45 e0          	mov    %rax,-0x20(%rbp)
  4054b8:	48 89 55 e8          	mov    %rdx,-0x18(%rbp)
  4054bc:	48 89 4d f0          	mov    %rcx,-0x10(%rbp)
  4054c0:	48 8b 45 f8          	mov    -0x8(%rbp),%rax
  4054c4:	48 8b 55 f0          	mov    -0x10(%rbp),%rdx
  4054c8:	48 89 d6             	mov    %rdx,%rsi
  4054cb:	48 89 c7             	mov    %rax,%rdi
  4054ce:	e8 0d e7 ff ff       	callq  403be0 <_ZNSt13runtime_errorC2EPKc@plt>
  4054d3:	ba 40 5c 41 00       	mov    $0x415c40,%edx
  4054d8:	48 8b 45 f8          	mov    -0x8(%rbp),%rax
  4054dc:	48 89 10             	mov    %rdx,(%rax)
  4054df:	48 8b 4d f8          	mov    -0x8(%rbp),%rcx
  4054e3:	48 8b 45 e0          	mov    -0x20(%rbp),%rax
  4054e7:	48 8b 55 e8          	mov    -0x18(%rbp),%rdx
  4054eb:	48 89 41 10          	mov    %rax,0x10(%rcx)
  4054ef:	48 89 51 18          	mov    %rdx,0x18(%rcx)
  4054f3:	48 8b 45 f8          	mov    -0x8(%rbp),%rax
  4054f7:	48 83 c0 20          	add    $0x20,%rax
  4054fb:	48 89 c7             	mov    %rax,%rdi
  4054fe:	e8 6d e4 ff ff       	callq  403970 <_ZNSt7__cxx1112basic_stringIcSt11char_traitsIcESaIcEEC1Ev@plt>
  405503:	90                   	nop
  405504:	c9                   	leaveq 
  405505:	c3                   	retq   

0000000000405506 <_ZN5boost6system12system_errorD1Ev>:
  405506:	55                   	push   %rbp
  405507:	48 89 e5             	mov    %rsp,%rbp
  40550a:	48 83 ec 10          	sub    $0x10,%rsp
  40550e:	48 89 7d f8          	mov    %rdi,-0x8(%rbp)
  405512:	ba 40 5c 41 00       	mov    $0x415c40,%edx
  405517:	48 8b 45 f8          	mov    -0x8(%rbp),%rax
  40551b:	48 89 10             	mov    %rdx,(%rax)
  40551e:	48 8b 45 f8          	mov    -0x8(%rbp),%rax
  405522:	48 83 c0 20          	add    $0x20,%rax
  405526:	48 89 c7             	mov    %rax,%rdi
  405529:	e8 52 e1 ff ff       	callq  403680 <_ZNSt7__cxx1112basic_stringIcSt11char_traitsIcESaIcEED1Ev@plt>
  40552e:	48 8b 45 f8          	mov    -0x8(%rbp),%rax
  405532:	48 89 c7             	mov    %rax,%rdi
  405535:	e8 e6 e2 ff ff       	callq  403820 <_ZNSt13runtime_errorD2Ev@plt>
  40553a:	b8 00 00 00 00       	mov    $0x0,%eax
  40553f:	85 c0                	test   %eax,%eax
  405541:	74 0c                	je     40554f <_ZN5boost6system12system_errorD1Ev+0x49>
  405543:	48 8b 45 f8          	mov    -0x8(%rbp),%rax
  405547:	48 89 c7             	mov    %rax,%rdi
  40554a:	e8 11 e2 ff ff       	callq  403760 <_ZdlPv@plt>
  40554f:	c9                   	leaveq 
  405550:	c3                   	retq   
  405551:	90                   	nop

0000000000405552 <_ZN5boost6system12system_errorD0Ev>:
  405552:	55                   	push   %rbp
  405553:	48 89 e5             	mov    %rsp,%rbp
  405556:	48 83 ec 10          	sub    $0x10,%rsp
  40555a:	48 89 7d f8          	mov    %rdi,-0x8(%rbp)
  40555e:	48 8b 45 f8          	mov    -0x8(%rbp),%rax
  405562:	48 89 c7             	mov    %rax,%rdi
  405565:	e8 9c ff ff ff       	callq  405506 <_ZN5boost6system12system_errorD1Ev>
  40556a:	48 8b 45 f8          	mov    -0x8(%rbp),%rax
  40556e:	48 89 c7             	mov    %rax,%rdi
  405571:	e8 ea e1 ff ff       	callq  403760 <_ZdlPv@plt>
  405576:	c9                   	leaveq 
  405577:	c3                   	retq   

0000000000405578 <_ZNK5boost6system12system_error4whatEv>:
  405578:	55                   	push   %rbp
  405579:	48 89 e5             	mov    %rsp,%rbp
  40557c:	53                   	push   %rbx
  40557d:	48 83 ec 48          	sub    $0x48,%rsp
  405581:	48 89 7d b8          	mov    %rdi,-0x48(%rbp)
  405585:	64 48 8b 04 25 28 00 	mov    %fs:0x28,%rax
  40558c:	00 00 
  40558e:	48 89 45 e8          	mov    %rax,-0x18(%rbp)
  405592:	31 c0                	xor    %eax,%eax
  405594:	48 8b 45 b8          	mov    -0x48(%rbp),%rax
  405598:	48 83 c0 20          	add    $0x20,%rax
  40559c:	48 89 c7             	mov    %rax,%rdi
  40559f:	e8 6c e5 ff ff       	callq  403b10 <_ZNKSt7__cxx1112basic_stringIcSt11char_traitsIcESaIcEE5emptyEv@plt>
  4055a4:	84 c0                	test   %al,%al
  4055a6:	0f 84 88 00 00 00    	je     405634 <_ZNK5boost6system12system_error4whatEv+0xbc>
  4055ac:	48 8b 45 b8          	mov    -0x48(%rbp),%rax
  4055b0:	48 89 c7             	mov    %rax,%rdi
  4055b3:	e8 98 e3 ff ff       	callq  403950 <_ZNKSt13runtime_error4whatEv@plt>
  4055b8:	48 89 c2             	mov    %rax,%rdx
  4055bb:	48 8b 45 b8          	mov    -0x48(%rbp),%rax
  4055bf:	48 83 c0 20          	add    $0x20,%rax
  4055c3:	48 89 d6             	mov    %rdx,%rsi
  4055c6:	48 89 c7             	mov    %rax,%rdi
  4055c9:	e8 52 e3 ff ff       	callq  403920 <_ZNSt7__cxx1112basic_stringIcSt11char_traitsIcESaIcEEaSEPKc@plt>
  4055ce:	48 8b 45 b8          	mov    -0x48(%rbp),%rax
  4055d2:	48 83 c0 20          	add    $0x20,%rax
  4055d6:	48 89 c7             	mov    %rax,%rdi
  4055d9:	e8 32 e5 ff ff       	callq  403b10 <_ZNKSt7__cxx1112basic_stringIcSt11char_traitsIcESaIcEE5emptyEv@plt>
  4055de:	83 f0 01             	xor    $0x1,%eax
  4055e1:	84 c0                	test   %al,%al
  4055e3:	74 15                	je     4055fa <_ZNK5boost6system12system_error4whatEv+0x82>
  4055e5:	48 8b 45 b8          	mov    -0x48(%rbp),%rax
  4055e9:	48 83 c0 20          	add    $0x20,%rax
  4055ed:	be eb 4c 41 00       	mov    $0x414ceb,%esi
  4055f2:	48 89 c7             	mov    %rax,%rdi
  4055f5:	e8 86 e1 ff ff       	callq  403780 <_ZNSt7__cxx1112basic_stringIcSt11char_traitsIcESaIcEEpLEPKc@plt>
  4055fa:	48 8b 45 b8          	mov    -0x48(%rbp),%rax
  4055fe:	48 8d 50 10          	lea    0x10(%rax),%rdx
  405602:	48 8d 45 c0          	lea    -0x40(%rbp),%rax
  405606:	48 89 d6             	mov    %rdx,%rsi
  405609:	48 89 c7             	mov    %rax,%rdi
  40560c:	e8 b3 f8 ff ff       	callq  404ec4 <_ZNK5boost6system10error_code7messageB5cxx11Ev>
  405611:	48 8b 45 b8          	mov    -0x48(%rbp),%rax
  405615:	48 8d 50 20          	lea    0x20(%rax),%rdx
  405619:	48 8d 45 c0          	lea    -0x40(%rbp),%rax
  40561d:	48 89 c6             	mov    %rax,%rsi
  405620:	48 89 d7             	mov    %rdx,%rdi
  405623:	e8 88 e2 ff ff       	callq  4038b0 <_ZNSt7__cxx1112basic_stringIcSt11char_traitsIcESaIcEEpLERKS4_@plt>
  405628:	48 8d 45 c0          	lea    -0x40(%rbp),%rax
  40562c:	48 89 c7             	mov    %rax,%rdi
  40562f:	e8 4c e0 ff ff       	callq  403680 <_ZNSt7__cxx1112basic_stringIcSt11char_traitsIcESaIcEED1Ev@plt>
  405634:	48 8b 45 b8          	mov    -0x48(%rbp),%rax
  405638:	48 83 c0 20          	add    $0x20,%rax
  40563c:	48 89 c7             	mov    %rax,%rdi
  40563f:	e8 8c df ff ff       	callq  4035d0 <_ZNKSt7__cxx1112basic_stringIcSt11char_traitsIcESaIcEE5c_strEv@plt>
  405644:	48 89 c3             	mov    %rax,%rbx
  405647:	48 89 d8             	mov    %rbx,%rax
  40564a:	48 8b 4d e8          	mov    -0x18(%rbp),%rcx
  40564e:	64 48 33 0c 25 28 00 	xor    %fs:0x28,%rcx
  405655:	00 00 
  405657:	74 4f                	je     4056a8 <_ZNK5boost6system12system_error4whatEv+0x130>
  405659:	eb 48                	jmp    4056a3 <_ZNK5boost6system12system_error4whatEv+0x12b>
  40565b:	48 89 c3             	mov    %rax,%rbx
  40565e:	48 8d 45 c0          	lea    -0x40(%rbp),%rax
  405662:	48 89 c7             	mov    %rax,%rdi
  405665:	e8 16 e0 ff ff       	callq  403680 <_ZNSt7__cxx1112basic_stringIcSt11char_traitsIcESaIcEED1Ev@plt>
  40566a:	48 89 d8             	mov    %rbx,%rax
  40566d:	eb 00                	jmp    40566f <_ZNK5boost6system12system_error4whatEv+0xf7>
  40566f:	48 89 c7             	mov    %rax,%rdi
  405672:	e8 49 df ff ff       	callq  4035c0 <__cxa_begin_catch@plt>
  405677:	48 8b 45 b8          	mov    -0x48(%rbp),%rax
  40567b:	48 89 c7             	mov    %rax,%rdi
  40567e:	e8 cd e2 ff ff       	callq  403950 <_ZNKSt13runtime_error4whatEv@plt>
  405683:	48 89 c3             	mov    %rax,%rbx
  405686:	e8 55 e4 ff ff       	callq  403ae0 <__cxa_end_catch@plt>
  40568b:	eb ba                	jmp    405647 <_ZNK5boost6system12system_error4whatEv+0xcf>
  40568d:	48 83 fa ff          	cmp    $0xffffffffffffffff,%rdx
  405691:	74 08                	je     40569b <_ZNK5boost6system12system_error4whatEv+0x123>
  405693:	48 89 c7             	mov    %rax,%rdi
  405696:	e8 b5 e4 ff ff       	callq  403b50 <_Unwind_Resume@plt>
  40569b:	48 89 c7             	mov    %rax,%rdi
  40569e:	e8 2d e2 ff ff       	callq  4038d0 <__cxa_call_unexpected@plt>
  4056a3:	e8 88 e1 ff ff       	callq  403830 <__stack_chk_fail@plt>
  4056a8:	48 83 c4 48          	add    $0x48,%rsp
  4056ac:	5b                   	pop    %rbx
  4056ad:	5d                   	pop    %rbp
  4056ae:	c3                   	retq   

00000000004056af <_ZN5boost4asio6detail14do_throw_errorERKNS_6system10error_codeE>:
  4056af:	55                   	push   %rbp
  4056b0:	48 89 e5             	mov    %rsp,%rbp
  4056b3:	53                   	push   %rbx
  4056b4:	48 83 ec 68          	sub    $0x68,%rsp
  4056b8:	48 89 7d 98          	mov    %rdi,-0x68(%rbp)
  4056bc:	64 48 8b 04 25 28 00 	mov    %fs:0x28,%rax
  4056c3:	00 00 
  4056c5:	48 89 45 e8          	mov    %rax,-0x18(%rbp)
  4056c9:	31 c0                	xor    %eax,%eax
  4056cb:	48 8b 45 98          	mov    -0x68(%rbp),%rax
  4056cf:	8b 08                	mov    (%rax),%ecx
  4056d1:	48 8b 50 08          	mov    0x8(%rax),%rdx
  4056d5:	48 8d 45 a0          	lea    -0x60(%rbp),%rax
  4056d9:	89 ce                	mov    %ecx,%esi
  4056db:	48 89 c7             	mov    %rax,%rdi
  4056de:	e8 5d fd ff ff       	callq  405440 <_ZN5boost6system12system_errorC1ENS0_10error_codeE>
  4056e3:	48 8d 45 a0          	lea    -0x60(%rbp),%rax
  4056e7:	48 89 c7             	mov    %rax,%rdi
  4056ea:	e8 40 5f 00 00       	callq  40b62f <_ZN5boost15throw_exceptionINS_6system12system_errorEEEvRKT_>
  4056ef:	48 89 c3             	mov    %rax,%rbx
  4056f2:	48 8d 45 a0          	lea    -0x60(%rbp),%rax
  4056f6:	48 89 c7             	mov    %rax,%rdi
  4056f9:	e8 08 fe ff ff       	callq  405506 <_ZN5boost6system12system_errorD1Ev>
  4056fe:	48 89 d8             	mov    %rbx,%rax
  405701:	48 89 c7             	mov    %rax,%rdi
  405704:	e8 47 e4 ff ff       	callq  403b50 <_Unwind_Resume@plt>

0000000000405709 <_ZN5boost4asio6detail14do_throw_errorERKNS_6system10error_codeEPKc>:
  405709:	55                   	push   %rbp
  40570a:	48 89 e5             	mov    %rsp,%rbp
  40570d:	53                   	push   %rbx
  40570e:	48 83 ec 68          	sub    $0x68,%rsp
  405712:	48 89 7d 98          	mov    %rdi,-0x68(%rbp)
  405716:	48 89 75 90          	mov    %rsi,-0x70(%rbp)
  40571a:	64 48 8b 04 25 28 00 	mov    %fs:0x28,%rax
  405721:	00 00 
  405723:	48 89 45 e8          	mov    %rax,-0x18(%rbp)
  405727:	31 c0                	xor    %eax,%eax
  405729:	48 8b 4d 90          	mov    -0x70(%rbp),%rcx
  40572d:	48 8b 45 98          	mov    -0x68(%rbp),%rax
  405731:	8b 30                	mov    (%rax),%esi
  405733:	48 8b 50 08          	mov    0x8(%rax),%rdx
  405737:	48 8d 45 a0          	lea    -0x60(%rbp),%rax
  40573b:	48 89 c7             	mov    %rax,%rdi
  40573e:	e8 5d fd ff ff       	callq  4054a0 <_ZN5boost6system12system_errorC1ENS0_10error_codeEPKc>
  405743:	48 8d 45 a0          	lea    -0x60(%rbp),%rax
  405747:	48 89 c7             	mov    %rax,%rdi
  40574a:	e8 e0 5e 00 00       	callq  40b62f <_ZN5boost15throw_exceptionINS_6system12system_errorEEEvRKT_>
  40574f:	48 89 c3             	mov    %rax,%rbx
  405752:	48 8d 45 a0          	lea    -0x60(%rbp),%rax
  405756:	48 89 c7             	mov    %rax,%rdi
  405759:	e8 a8 fd ff ff       	callq  405506 <_ZN5boost6system12system_errorD1Ev>
  40575e:	48 89 d8             	mov    %rbx,%rax
  405761:	48 89 c7             	mov    %rax,%rdi
  405764:	e8 e7 e3 ff ff       	callq  403b50 <_Unwind_Resume@plt>

0000000000405769 <_ZN5boost4asio5error19get_system_categoryEv>:
  405769:	55                   	push   %rbp
  40576a:	48 89 e5             	mov    %rsp,%rbp
  40576d:	e8 9e e0 ff ff       	callq  403810 <_ZN5boost6system15system_categoryEv@plt>
  405772:	5d                   	pop    %rbp
  405773:	c3                   	retq   

0000000000405774 <_ZN5boost4asio5error15make_error_codeENS1_12basic_errorsE>:
  405774:	55                   	push   %rbp
  405775:	48 89 e5             	mov    %rsp,%rbp
  405778:	53                   	push   %rbx
  405779:	48 83 ec 38          	sub    $0x38,%rsp
  40577d:	89 7d cc             	mov    %edi,-0x34(%rbp)
  405780:	64 48 8b 04 25 28 00 	mov    %fs:0x28,%rax
  405787:	00 00 
  405789:	48 89 45 e8          	mov    %rax,-0x18(%rbp)
  40578d:	31 c0                	xor    %eax,%eax
  40578f:	e8 d5 ff ff ff       	callq  405769 <_ZN5boost4asio5error19get_system_categoryEv>
  405794:	48 89 c2             	mov    %rax,%rdx
  405797:	8b 4d cc             	mov    -0x34(%rbp),%ecx
  40579a:	48 8d 45 d0          	lea    -0x30(%rbp),%rax
  40579e:	89 ce                	mov    %ecx,%esi
  4057a0:	48 89 c7             	mov    %rax,%rdi
  4057a3:	e8 d2 f6 ff ff       	callq  404e7a <_ZN5boost6system10error_codeC1EiRKNS0_14error_categoryE>
  4057a8:	48 8b 45 d0          	mov    -0x30(%rbp),%rax
  4057ac:	48 8b 55 d8          	mov    -0x28(%rbp),%rdx
  4057b0:	48 89 c1             	mov    %rax,%rcx
  4057b3:	48 89 d3             	mov    %rdx,%rbx
  4057b6:	89 c8                	mov    %ecx,%eax
  4057b8:	48 8b 5d e8          	mov    -0x18(%rbp),%rbx
  4057bc:	64 48 33 1c 25 28 00 	xor    %fs:0x28,%rbx
  4057c3:	00 00 
  4057c5:	74 05                	je     4057cc <_ZN5boost4asio5error15make_error_codeENS1_12basic_errorsE+0x58>
  4057c7:	e8 64 e0 ff ff       	callq  403830 <__stack_chk_fail@plt>
  4057cc:	48 83 c4 38          	add    $0x38,%rsp
  4057d0:	5b                   	pop    %rbx
  4057d1:	5d                   	pop    %rbp
  4057d2:	c3                   	retq   

00000000004057d3 <_ZN5boost4asio5error15make_error_codeENS1_12netdb_errorsE>:
  4057d3:	55                   	push   %rbp
  4057d4:	48 89 e5             	mov    %rsp,%rbp
  4057d7:	53                   	push   %rbx
  4057d8:	48 83 ec 38          	sub    $0x38,%rsp
  4057dc:	89 7d cc             	mov    %edi,-0x34(%rbp)
  4057df:	64 48 8b 04 25 28 00 	mov    %fs:0x28,%rax
  4057e6:	00 00 
  4057e8:	48 89 45 e8          	mov    %rax,-0x18(%rbp)
  4057ec:	31 c0                	xor    %eax,%eax
  4057ee:	e8 e3 02 00 00       	callq  405ad6 <_ZN5boost4asio5error18get_netdb_categoryEv>
  4057f3:	48 89 c2             	mov    %rax,%rdx
  4057f6:	8b 4d cc             	mov    -0x34(%rbp),%ecx
  4057f9:	48 8d 45 d0          	lea    -0x30(%rbp),%rax
  4057fd:	89 ce                	mov    %ecx,%esi
  4057ff:	48 89 c7             	mov    %rax,%rdi
  405802:	e8 73 f6 ff ff       	callq  404e7a <_ZN5boost6system10error_codeC1EiRKNS0_14error_categoryE>
  405807:	48 8b 45 d0          	mov    -0x30(%rbp),%rax
  40580b:	48 8b 55 d8          	mov    -0x28(%rbp),%rdx
  40580f:	48 89 c1             	mov    %rax,%rcx
  405812:	48 89 d3             	mov    %rdx,%rbx
  405815:	89 c8                	mov    %ecx,%eax
  405817:	48 8b 5d e8          	mov    -0x18(%rbp),%rbx
  40581b:	64 48 33 1c 25 28 00 	xor    %fs:0x28,%rbx
  405822:	00 00 
  405824:	74 05                	je     40582b <_ZN5boost4asio5error15make_error_codeENS1_12netdb_errorsE+0x58>
  405826:	e8 05 e0 ff ff       	callq  403830 <__stack_chk_fail@plt>
  40582b:	48 83 c4 38          	add    $0x38,%rsp
  40582f:	5b                   	pop    %rbx
  405830:	5d                   	pop    %rbp
  405831:	c3                   	retq   

0000000000405832 <_ZN5boost4asio5error15make_error_codeENS1_15addrinfo_errorsE>:
  405832:	55                   	push   %rbp
  405833:	48 89 e5             	mov    %rsp,%rbp
  405836:	53                   	push   %rbx
  405837:	48 83 ec 38          	sub    $0x38,%rsp
  40583b:	89 7d cc             	mov    %edi,-0x34(%rbp)
  40583e:	64 48 8b 04 25 28 00 	mov    %fs:0x28,%rax
  405845:	00 00 
  405847:	48 89 45 e8          	mov    %rax,-0x18(%rbp)
  40584b:	31 c0                	xor    %eax,%eax
  40584d:	e8 08 04 00 00       	callq  405c5a <_ZN5boost4asio5error21get_addrinfo_categoryEv>
  405852:	48 89 c2             	mov    %rax,%rdx
  405855:	8b 4d cc             	mov    -0x34(%rbp),%ecx
  405858:	48 8d 45 d0          	lea    -0x30(%rbp),%rax
  40585c:	89 ce                	mov    %ecx,%esi
  40585e:	48 89 c7             	mov    %rax,%rdi
  405861:	e8 14 f6 ff ff       	callq  404e7a <_ZN5boost6system10error_codeC1EiRKNS0_14error_categoryE>
  405866:	48 8b 45 d0          	mov    -0x30(%rbp),%rax
  40586a:	48 8b 55 d8          	mov    -0x28(%rbp),%rdx
  40586e:	48 89 c1             	mov    %rax,%rcx
  405871:	48 89 d3             	mov    %rdx,%rbx
  405874:	89 c8                	mov    %ecx,%eax
  405876:	48 8b 5d e8          	mov    -0x18(%rbp),%rbx
  40587a:	64 48 33 1c 25 28 00 	xor    %fs:0x28,%rbx
  405881:	00 00 
  405883:	74 05                	je     40588a <_ZN5boost4asio5error15make_error_codeENS1_15addrinfo_errorsE+0x58>
  405885:	e8 a6 df ff ff       	callq  403830 <__stack_chk_fail@plt>
  40588a:	48 83 c4 38          	add    $0x38,%rsp
  40588e:	5b                   	pop    %rbx
  40588f:	5d                   	pop    %rbp
  405890:	c3                   	retq   

0000000000405891 <_ZN5boost4asio5error15make_error_codeENS1_11misc_errorsE>:
  405891:	55                   	push   %rbp
  405892:	48 89 e5             	mov    %rsp,%rbp
  405895:	53                   	push   %rbx
  405896:	48 83 ec 38          	sub    $0x38,%rsp
  40589a:	89 7d cc             	mov    %edi,-0x34(%rbp)
  40589d:	64 48 8b 04 25 28 00 	mov    %fs:0x28,%rax
  4058a4:	00 00 
  4058a6:	48 89 45 e8          	mov    %rax,-0x18(%rbp)
  4058aa:	31 c0                	xor    %eax,%eax
  4058ac:	e8 d7 05 00 00       	callq  405e88 <_ZN5boost4asio5error17get_misc_categoryEv>
  4058b1:	48 89 c2             	mov    %rax,%rdx
  4058b4:	8b 4d cc             	mov    -0x34(%rbp),%ecx
  4058b7:	48 8d 45 d0          	lea    -0x30(%rbp),%rax
  4058bb:	89 ce                	mov    %ecx,%esi
  4058bd:	48 89 c7             	mov    %rax,%rdi
  4058c0:	e8 b5 f5 ff ff       	callq  404e7a <_ZN5boost6system10error_codeC1EiRKNS0_14error_categoryE>
  4058c5:	48 8b 45 d0          	mov    -0x30(%rbp),%rax
  4058c9:	48 8b 55 d8          	mov    -0x28(%rbp),%rdx
  4058cd:	48 89 c1             	mov    %rax,%rcx
  4058d0:	48 89 d3             	mov    %rdx,%rbx
  4058d3:	89 c8                	mov    %ecx,%eax
  4058d5:	48 8b 5d e8          	mov    -0x18(%rbp),%rbx
  4058d9:	64 48 33 1c 25 28 00 	xor    %fs:0x28,%rbx
  4058e0:	00 00 
  4058e2:	74 05                	je     4058e9 <_ZN5boost4asio5error15make_error_codeENS1_11misc_errorsE+0x58>
  4058e4:	e8 47 df ff ff       	callq  403830 <__stack_chk_fail@plt>
  4058e9:	48 83 c4 38          	add    $0x38,%rsp
  4058ed:	5b                   	pop    %rbx
  4058ee:	5d                   	pop    %rbp
  4058ef:	c3                   	retq   

00000000004058f0 <_ZNK5boost4asio5error6detail14netdb_category4nameEv>:
  4058f0:	55                   	push   %rbp
  4058f1:	48 89 e5             	mov    %rsp,%rbp
  4058f4:	48 89 7d f8          	mov    %rdi,-0x8(%rbp)
  4058f8:	b8 ee 4c 41 00       	mov    $0x414cee,%eax
  4058fd:	5d                   	pop    %rbp
  4058fe:	c3                   	retq   
  4058ff:	90                   	nop

0000000000405900 <_ZNK5boost4asio5error6detail14netdb_category7messageB5cxx11Ei>:
  405900:	55                   	push   %rbp
  405901:	48 89 e5             	mov    %rsp,%rbp
  405904:	53                   	push   %rbx
  405905:	48 83 ec 38          	sub    $0x38,%rsp
  405909:	48 89 7d d8          	mov    %rdi,-0x28(%rbp)
  40590d:	48 89 75 d0          	mov    %rsi,-0x30(%rbp)
  405911:	89 55 cc             	mov    %edx,-0x34(%rbp)
  405914:	64 48 8b 04 25 28 00 	mov    %fs:0x28,%rax
  40591b:	00 00 
  40591d:	48 89 45 e8          	mov    %rax,-0x18(%rbp)
  405921:	31 c0                	xor    %eax,%eax
  405923:	83 7d cc 01          	cmpl   $0x1,-0x34(%rbp)
  405927:	75 32                	jne    40595b <_ZNK5boost4asio5error6detail14netdb_category7messageB5cxx11Ei+0x5b>
  405929:	48 8d 45 e7          	lea    -0x19(%rbp),%rax
  40592d:	48 89 c7             	mov    %rax,%rdi
  405930:	e8 3b e2 ff ff       	callq  403b70 <_ZNSaIcEC1Ev@plt>
  405935:	48 8d 55 e7          	lea    -0x19(%rbp),%rdx
  405939:	48 8b 45 d8          	mov    -0x28(%rbp),%rax
  40593d:	be 00 4d 41 00       	mov    $0x414d00,%esi
  405942:	48 89 c7             	mov    %rax,%rdi
  405945:	e8 f6 df ff ff       	callq  403940 <_ZNSt7__cxx1112basic_stringIcSt11char_traitsIcESaIcEEC1EPKcRKS3_@plt>
  40594a:	48 8d 45 e7          	lea    -0x19(%rbp),%rax
  40594e:	48 89 c7             	mov    %rax,%rdi
  405951:	e8 9a de ff ff       	callq  4037f0 <_ZNSaIcED1Ev@plt>
  405956:	e9 5c 01 00 00       	jmpq   405ab7 <_ZNK5boost4asio5error6detail14netdb_category7messageB5cxx11Ei+0x1b7>
  40595b:	83 7d cc 02          	cmpl   $0x2,-0x34(%rbp)
  40595f:	75 32                	jne    405993 <_ZNK5boost4asio5error6detail14netdb_category7messageB5cxx11Ei+0x93>
  405961:	48 8d 45 e7          	lea    -0x19(%rbp),%rax
  405965:	48 89 c7             	mov    %rax,%rdi
  405968:	e8 03 e2 ff ff       	callq  403b70 <_ZNSaIcEC1Ev@plt>
  40596d:	48 8d 55 e7          	lea    -0x19(%rbp),%rdx
  405971:	48 8b 45 d8          	mov    -0x28(%rbp),%rax
  405975:	be 20 4d 41 00       	mov    $0x414d20,%esi
  40597a:	48 89 c7             	mov    %rax,%rdi
  40597d:	e8 be df ff ff       	callq  403940 <_ZNSt7__cxx1112basic_stringIcSt11char_traitsIcESaIcEEC1EPKcRKS3_@plt>
  405982:	48 8d 45 e7          	lea    -0x19(%rbp),%rax
  405986:	48 89 c7             	mov    %rax,%rdi
  405989:	e8 62 de ff ff       	callq  4037f0 <_ZNSaIcED1Ev@plt>
  40598e:	e9 24 01 00 00       	jmpq   405ab7 <_ZNK5boost4asio5error6detail14netdb_category7messageB5cxx11Ei+0x1b7>
  405993:	83 7d cc 04          	cmpl   $0x4,-0x34(%rbp)
  405997:	75 32                	jne    4059cb <_ZNK5boost4asio5error6detail14netdb_category7messageB5cxx11Ei+0xcb>
  405999:	48 8d 45 e7          	lea    -0x19(%rbp),%rax
  40599d:	48 89 c7             	mov    %rax,%rdi
  4059a0:	e8 cb e1 ff ff       	callq  403b70 <_ZNSaIcEC1Ev@plt>
  4059a5:	48 8d 55 e7          	lea    -0x19(%rbp),%rdx
  4059a9:	48 8b 45 d8          	mov    -0x28(%rbp),%rax
  4059ad:	be 58 4d 41 00       	mov    $0x414d58,%esi
  4059b2:	48 89 c7             	mov    %rax,%rdi
  4059b5:	e8 86 df ff ff       	callq  403940 <_ZNSt7__cxx1112basic_stringIcSt11char_traitsIcESaIcEEC1EPKcRKS3_@plt>
  4059ba:	48 8d 45 e7          	lea    -0x19(%rbp),%rax
  4059be:	48 89 c7             	mov    %rax,%rdi
  4059c1:	e8 2a de ff ff       	callq  4037f0 <_ZNSaIcED1Ev@plt>
  4059c6:	e9 ec 00 00 00       	jmpq   405ab7 <_ZNK5boost4asio5error6detail14netdb_category7messageB5cxx11Ei+0x1b7>
  4059cb:	83 7d cc 03          	cmpl   $0x3,-0x34(%rbp)
  4059cf:	75 32                	jne    405a03 <_ZNK5boost4asio5error6detail14netdb_category7messageB5cxx11Ei+0x103>
  4059d1:	48 8d 45 e7          	lea    -0x19(%rbp),%rax
  4059d5:	48 89 c7             	mov    %rax,%rdi
  4059d8:	e8 93 e1 ff ff       	callq  403b70 <_ZNSaIcEC1Ev@plt>
  4059dd:	48 8d 55 e7          	lea    -0x19(%rbp),%rdx
  4059e1:	48 8b 45 d8          	mov    -0x28(%rbp),%rax
  4059e5:	be 98 4d 41 00       	mov    $0x414d98,%esi
  4059ea:	48 89 c7             	mov    %rax,%rdi
  4059ed:	e8 4e df ff ff       	callq  403940 <_ZNSt7__cxx1112basic_stringIcSt11char_traitsIcESaIcEEC1EPKcRKS3_@plt>
  4059f2:	48 8d 45 e7          	lea    -0x19(%rbp),%rax
  4059f6:	48 89 c7             	mov    %rax,%rdi
  4059f9:	e8 f2 dd ff ff       	callq  4037f0 <_ZNSaIcED1Ev@plt>
  4059fe:	e9 b4 00 00 00       	jmpq   405ab7 <_ZNK5boost4asio5error6detail14netdb_category7messageB5cxx11Ei+0x1b7>
  405a03:	48 8d 45 e7          	lea    -0x19(%rbp),%rax
  405a07:	48 89 c7             	mov    %rax,%rdi
  405a0a:	e8 61 e1 ff ff       	callq  403b70 <_ZNSaIcEC1Ev@plt>
  405a0f:	48 8d 55 e7          	lea    -0x19(%rbp),%rdx
  405a13:	48 8b 45 d8          	mov    -0x28(%rbp),%rax
  405a17:	be d0 4d 41 00       	mov    $0x414dd0,%esi
  405a1c:	48 89 c7             	mov    %rax,%rdi
  405a1f:	e8 1c df ff ff       	callq  403940 <_ZNSt7__cxx1112basic_stringIcSt11char_traitsIcESaIcEEC1EPKcRKS3_@plt>
  405a24:	48 8d 45 e7          	lea    -0x19(%rbp),%rax
  405a28:	48 89 c7             	mov    %rax,%rdi
  405a2b:	e8 c0 dd ff ff       	callq  4037f0 <_ZNSaIcED1Ev@plt>
  405a30:	e9 82 00 00 00       	jmpq   405ab7 <_ZNK5boost4asio5error6detail14netdb_category7messageB5cxx11Ei+0x1b7>
  405a35:	48 89 c3             	mov    %rax,%rbx
  405a38:	48 8d 45 e7          	lea    -0x19(%rbp),%rax
  405a3c:	48 89 c7             	mov    %rax,%rdi
  405a3f:	e8 ac dd ff ff       	callq  4037f0 <_ZNSaIcED1Ev@plt>
  405a44:	48 89 d8             	mov    %rbx,%rax
  405a47:	48 89 c7             	mov    %rax,%rdi
  405a4a:	e8 01 e1 ff ff       	callq  403b50 <_Unwind_Resume@plt>
  405a4f:	48 89 c3             	mov    %rax,%rbx
  405a52:	48 8d 45 e7          	lea    -0x19(%rbp),%rax
  405a56:	48 89 c7             	mov    %rax,%rdi
  405a59:	e8 92 dd ff ff       	callq  4037f0 <_ZNSaIcED1Ev@plt>
  405a5e:	48 89 d8             	mov    %rbx,%rax
  405a61:	48 89 c7             	mov    %rax,%rdi
  405a64:	e8 e7 e0 ff ff       	callq  403b50 <_Unwind_Resume@plt>
  405a69:	48 89 c3             	mov    %rax,%rbx
  405a6c:	48 8d 45 e7          	lea    -0x19(%rbp),%rax
  405a70:	48 89 c7             	mov    %rax,%rdi
  405a73:	e8 78 dd ff ff       	callq  4037f0 <_ZNSaIcED1Ev@plt>
  405a78:	48 89 d8             	mov    %rbx,%rax
  405a7b:	48 89 c7             	mov    %rax,%rdi
  405a7e:	e8 cd e0 ff ff       	callq  403b50 <_Unwind_Resume@plt>
  405a83:	48 89 c3             	mov    %rax,%rbx
  405a86:	48 8d 45 e7          	lea    -0x19(%rbp),%rax
  405a8a:	48 89 c7             	mov    %rax,%rdi
  405a8d:	e8 5e dd ff ff       	callq  4037f0 <_ZNSaIcED1Ev@plt>
  405a92:	48 89 d8             	mov    %rbx,%rax
  405a95:	48 89 c7             	mov    %rax,%rdi
  405a98:	e8 b3 e0 ff ff       	callq  403b50 <_Unwind_Resume@plt>
  405a9d:	48 89 c3             	mov    %rax,%rbx
  405aa0:	48 8d 45 e7          	lea    -0x19(%rbp),%rax
  405aa4:	48 89 c7             	mov    %rax,%rdi
  405aa7:	e8 44 dd ff ff       	callq  4037f0 <_ZNSaIcED1Ev@plt>
  405aac:	48 89 d8             	mov    %rbx,%rax
  405aaf:	48 89 c7             	mov    %rax,%rdi
  405ab2:	e8 99 e0 ff ff       	callq  403b50 <_Unwind_Resume@plt>
  405ab7:	48 8b 45 d8          	mov    -0x28(%rbp),%rax
  405abb:	48 8b 4d e8          	mov    -0x18(%rbp),%rcx
  405abf:	64 48 33 0c 25 28 00 	xor    %fs:0x28,%rcx
  405ac6:	00 00 
  405ac8:	74 05                	je     405acf <_ZNK5boost4asio5error6detail14netdb_category7messageB5cxx11Ei+0x1cf>
  405aca:	e8 61 dd ff ff       	callq  403830 <__stack_chk_fail@plt>
  405acf:	48 83 c4 38          	add    $0x38,%rsp
  405ad3:	5b                   	pop    %rbx
  405ad4:	5d                   	pop    %rbp
  405ad5:	c3                   	retq   

0000000000405ad6 <_ZN5boost4asio5error18get_netdb_categoryEv>:
  405ad6:	55                   	push   %rbp
  405ad7:	48 89 e5             	mov    %rsp,%rbp
  405ada:	b8 50 07 62 00       	mov    $0x620750,%eax
  405adf:	0f b6 00             	movzbl (%rax),%eax
  405ae2:	84 c0                	test   %al,%al
  405ae4:	75 31                	jne    405b17 <_ZN5boost4asio5error18get_netdb_categoryEv+0x41>
  405ae6:	bf 50 07 62 00       	mov    $0x620750,%edi
  405aeb:	e8 a0 e0 ff ff       	callq  403b90 <__cxa_guard_acquire@plt>
  405af0:	85 c0                	test   %eax,%eax
  405af2:	0f 95 c0             	setne  %al
  405af5:	84 c0                	test   %al,%al
  405af7:	74 1e                	je     405b17 <_ZN5boost4asio5error18get_netdb_categoryEv+0x41>
  405af9:	bf 50 07 62 00       	mov    $0x620750,%edi
  405afe:	e8 8d db ff ff       	callq  403690 <__cxa_guard_release@plt>
  405b03:	ba 08 04 62 00       	mov    $0x620408,%edx
  405b08:	be 10 04 62 00       	mov    $0x620410,%esi
  405b0d:	bf 02 43 41 00       	mov    $0x414302,%edi
  405b12:	e8 19 dc ff ff       	callq  403730 <__cxa_atexit@plt>
  405b17:	b8 10 04 62 00       	mov    $0x620410,%eax
  405b1c:	5d                   	pop    %rbp
  405b1d:	c3                   	retq   

0000000000405b1e <_ZNK5boost4asio5error6detail17addrinfo_category4nameEv>:
  405b1e:	55                   	push   %rbp
  405b1f:	48 89 e5             	mov    %rsp,%rbp
  405b22:	48 89 7d f8          	mov    %rdi,-0x8(%rbp)
  405b26:	b8 e1 4d 41 00       	mov    $0x414de1,%eax
  405b2b:	5d                   	pop    %rbp
  405b2c:	c3                   	retq   
  405b2d:	90                   	nop

0000000000405b2e <_ZNK5boost4asio5error6detail17addrinfo_category7messageB5cxx11Ei>:
  405b2e:	55                   	push   %rbp
  405b2f:	48 89 e5             	mov    %rsp,%rbp
  405b32:	53                   	push   %rbx
  405b33:	48 83 ec 38          	sub    $0x38,%rsp
  405b37:	48 89 7d d8          	mov    %rdi,-0x28(%rbp)
  405b3b:	48 89 75 d0          	mov    %rsi,-0x30(%rbp)
  405b3f:	89 55 cc             	mov    %edx,-0x34(%rbp)
  405b42:	64 48 8b 04 25 28 00 	mov    %fs:0x28,%rax
  405b49:	00 00 
  405b4b:	48 89 45 e8          	mov    %rax,-0x18(%rbp)
  405b4f:	31 c0                	xor    %eax,%eax
  405b51:	83 7d cc f8          	cmpl   $0xfffffff8,-0x34(%rbp)
  405b55:	75 32                	jne    405b89 <_ZNK5boost4asio5error6detail17addrinfo_category7messageB5cxx11Ei+0x5b>
  405b57:	48 8d 45 e7          	lea    -0x19(%rbp),%rax
  405b5b:	48 89 c7             	mov    %rax,%rdi
  405b5e:	e8 0d e0 ff ff       	callq  403b70 <_ZNSaIcEC1Ev@plt>
  405b63:	48 8d 55 e7          	lea    -0x19(%rbp),%rdx
  405b67:	48 8b 45 d8          	mov    -0x28(%rbp),%rax
  405b6b:	be ef 4d 41 00       	mov    $0x414def,%esi
  405b70:	48 89 c7             	mov    %rax,%rdi
  405b73:	e8 c8 dd ff ff       	callq  403940 <_ZNSt7__cxx1112basic_stringIcSt11char_traitsIcESaIcEEC1EPKcRKS3_@plt>
  405b78:	48 8d 45 e7          	lea    -0x19(%rbp),%rax
  405b7c:	48 89 c7             	mov    %rax,%rdi
  405b7f:	e8 6c dc ff ff       	callq  4037f0 <_ZNSaIcED1Ev@plt>
  405b84:	e9 b2 00 00 00       	jmpq   405c3b <_ZNK5boost4asio5error6detail17addrinfo_category7messageB5cxx11Ei+0x10d>
  405b89:	83 7d cc f9          	cmpl   $0xfffffff9,-0x34(%rbp)
  405b8d:	75 2f                	jne    405bbe <_ZNK5boost4asio5error6detail17addrinfo_category7messageB5cxx11Ei+0x90>
  405b8f:	48 8d 45 e7          	lea    -0x19(%rbp),%rax
  405b93:	48 89 c7             	mov    %rax,%rdi
  405b96:	e8 d5 df ff ff       	callq  403b70 <_ZNSaIcEC1Ev@plt>
  405b9b:	48 8d 55 e7          	lea    -0x19(%rbp),%rdx
  405b9f:	48 8b 45 d8          	mov    -0x28(%rbp),%rax
  405ba3:	be 01 4e 41 00       	mov    $0x414e01,%esi
  405ba8:	48 89 c7             	mov    %rax,%rdi
  405bab:	e8 90 dd ff ff       	callq  403940 <_ZNSt7__cxx1112basic_stringIcSt11char_traitsIcESaIcEEC1EPKcRKS3_@plt>
  405bb0:	48 8d 45 e7          	lea    -0x19(%rbp),%rax
  405bb4:	48 89 c7             	mov    %rax,%rdi
  405bb7:	e8 34 dc ff ff       	callq  4037f0 <_ZNSaIcED1Ev@plt>
  405bbc:	eb 7d                	jmp    405c3b <_ZNK5boost4asio5error6detail17addrinfo_category7messageB5cxx11Ei+0x10d>
  405bbe:	48 8d 45 e7          	lea    -0x19(%rbp),%rax
  405bc2:	48 89 c7             	mov    %rax,%rdi
  405bc5:	e8 a6 df ff ff       	callq  403b70 <_ZNSaIcEC1Ev@plt>
  405bca:	48 8d 55 e7          	lea    -0x19(%rbp),%rdx
  405bce:	48 8b 45 d8          	mov    -0x28(%rbp),%rax
  405bd2:	be 1b 4e 41 00       	mov    $0x414e1b,%esi
  405bd7:	48 89 c7             	mov    %rax,%rdi
  405bda:	e8 61 dd ff ff       	callq  403940 <_ZNSt7__cxx1112basic_stringIcSt11char_traitsIcESaIcEEC1EPKcRKS3_@plt>
  405bdf:	48 8d 45 e7          	lea    -0x19(%rbp),%rax
  405be3:	48 89 c7             	mov    %rax,%rdi
  405be6:	e8 05 dc ff ff       	callq  4037f0 <_ZNSaIcED1Ev@plt>
  405beb:	eb 4e                	jmp    405c3b <_ZNK5boost4asio5error6detail17addrinfo_category7messageB5cxx11Ei+0x10d>
  405bed:	48 89 c3             	mov    %rax,%rbx
  405bf0:	48 8d 45 e7          	lea    -0x19(%rbp),%rax
  405bf4:	48 89 c7             	mov    %rax,%rdi
  405bf7:	e8 f4 db ff ff       	callq  4037f0 <_ZNSaIcED1Ev@plt>
  405bfc:	48 89 d8             	mov    %rbx,%rax
  405bff:	48 89 c7             	mov    %rax,%rdi
  405c02:	e8 49 df ff ff       	callq  403b50 <_Unwind_Resume@plt>
  405c07:	48 89 c3             	mov    %rax,%rbx
  405c0a:	48 8d 45 e7          	lea    -0x19(%rbp),%rax
  405c0e:	48 89 c7             	mov    %rax,%rdi
  405c11:	e8 da db ff ff       	callq  4037f0 <_ZNSaIcED1Ev@plt>
  405c16:	48 89 d8             	mov    %rbx,%rax
  405c19:	48 89 c7             	mov    %rax,%rdi
  405c1c:	e8 2f df ff ff       	callq  403b50 <_Unwind_Resume@plt>
  405c21:	48 89 c3             	mov    %rax,%rbx
  405c24:	48 8d 45 e7          	lea    -0x19(%rbp),%rax
  405c28:	48 89 c7             	mov    %rax,%rdi
  405c2b:	e8 c0 db ff ff       	callq  4037f0 <_ZNSaIcED1Ev@plt>
  405c30:	48 89 d8             	mov    %rbx,%rax
  405c33:	48 89 c7             	mov    %rax,%rdi
  405c36:	e8 15 df ff ff       	callq  403b50 <_Unwind_Resume@plt>
  405c3b:	48 8b 45 d8          	mov    -0x28(%rbp),%rax
  405c3f:	48 8b 4d e8          	mov    -0x18(%rbp),%rcx
  405c43:	64 48 33 0c 25 28 00 	xor    %fs:0x28,%rcx
  405c4a:	00 00 
  405c4c:	74 05                	je     405c53 <_ZNK5boost4asio5error6detail17addrinfo_category7messageB5cxx11Ei+0x125>
  405c4e:	e8 dd db ff ff       	callq  403830 <__stack_chk_fail@plt>
  405c53:	48 83 c4 38          	add    $0x38,%rsp
  405c57:	5b                   	pop    %rbx
  405c58:	5d                   	pop    %rbp
  405c59:	c3                   	retq   

0000000000405c5a <_ZN5boost4asio5error21get_addrinfo_categoryEv>:
  405c5a:	55                   	push   %rbp
  405c5b:	48 89 e5             	mov    %rsp,%rbp
  405c5e:	b8 58 07 62 00       	mov    $0x620758,%eax
  405c63:	0f b6 00             	movzbl (%rax),%eax
  405c66:	84 c0                	test   %al,%al
  405c68:	75 31                	jne    405c9b <_ZN5boost4asio5error21get_addrinfo_categoryEv+0x41>
  405c6a:	bf 58 07 62 00       	mov    $0x620758,%edi
  405c6f:	e8 1c df ff ff       	callq  403b90 <__cxa_guard_acquire@plt>
  405c74:	85 c0                	test   %eax,%eax
  405c76:	0f 95 c0             	setne  %al
  405c79:	84 c0                	test   %al,%al
  405c7b:	74 1e                	je     405c9b <_ZN5boost4asio5error21get_addrinfo_categoryEv+0x41>
  405c7d:	bf 58 07 62 00       	mov    $0x620758,%edi
  405c82:	e8 09 da ff ff       	callq  403690 <__cxa_guard_release@plt>
  405c87:	ba 08 04 62 00       	mov    $0x620408,%edx
  405c8c:	be 18 04 62 00       	mov    $0x620418,%esi
  405c91:	bf a0 42 41 00       	mov    $0x4142a0,%edi
  405c96:	e8 95 da ff ff       	callq  403730 <__cxa_atexit@plt>
  405c9b:	b8 18 04 62 00       	mov    $0x620418,%eax
  405ca0:	5d                   	pop    %rbp
  405ca1:	c3                   	retq   

0000000000405ca2 <_ZNK5boost4asio5error6detail13misc_category4nameEv>:
  405ca2:	55                   	push   %rbp
  405ca3:	48 89 e5             	mov    %rsp,%rbp
  405ca6:	48 89 7d f8          	mov    %rdi,-0x8(%rbp)
  405caa:	b8 2f 4e 41 00       	mov    $0x414e2f,%eax
  405caf:	5d                   	pop    %rbp
  405cb0:	c3                   	retq   
  405cb1:	90                   	nop

0000000000405cb2 <_ZNK5boost4asio5error6detail13misc_category7messageB5cxx11Ei>:
  405cb2:	55                   	push   %rbp
  405cb3:	48 89 e5             	mov    %rsp,%rbp
  405cb6:	53                   	push   %rbx
  405cb7:	48 83 ec 38          	sub    $0x38,%rsp
  405cbb:	48 89 7d d8          	mov    %rdi,-0x28(%rbp)
  405cbf:	48 89 75 d0          	mov    %rsi,-0x30(%rbp)
  405cc3:	89 55 cc             	mov    %edx,-0x34(%rbp)
  405cc6:	64 48 8b 04 25 28 00 	mov    %fs:0x28,%rax
  405ccd:	00 00 
  405ccf:	48 89 45 e8          	mov    %rax,-0x18(%rbp)
  405cd3:	31 c0                	xor    %eax,%eax
  405cd5:	83 7d cc 01          	cmpl   $0x1,-0x34(%rbp)
  405cd9:	75 32                	jne    405d0d <_ZNK5boost4asio5error6detail13misc_category7messageB5cxx11Ei+0x5b>
  405cdb:	48 8d 45 e7          	lea    -0x19(%rbp),%rax
  405cdf:	48 89 c7             	mov    %rax,%rdi
  405ce2:	e8 89 de ff ff       	callq  403b70 <_ZNSaIcEC1Ev@plt>
  405ce7:	48 8d 55 e7          	lea    -0x19(%rbp),%rdx
  405ceb:	48 8b 45 d8          	mov    -0x28(%rbp),%rax
  405cef:	be 39 4e 41 00       	mov    $0x414e39,%esi
  405cf4:	48 89 c7             	mov    %rax,%rdi
  405cf7:	e8 44 dc ff ff       	callq  403940 <_ZNSt7__cxx1112basic_stringIcSt11char_traitsIcESaIcEEC1EPKcRKS3_@plt>
  405cfc:	48 8d 45 e7          	lea    -0x19(%rbp),%rax
  405d00:	48 89 c7             	mov    %rax,%rdi
  405d03:	e8 e8 da ff ff       	callq  4037f0 <_ZNSaIcED1Ev@plt>
  405d08:	e9 5c 01 00 00       	jmpq   405e69 <_ZNK5boost4asio5error6detail13misc_category7messageB5cxx11Ei+0x1b7>
  405d0d:	83 7d cc 02          	cmpl   $0x2,-0x34(%rbp)
  405d11:	75 32                	jne    405d45 <_ZNK5boost4asio5error6detail13misc_category7messageB5cxx11Ei+0x93>
  405d13:	48 8d 45 e7          	lea    -0x19(%rbp),%rax
  405d17:	48 89 c7             	mov    %rax,%rdi
  405d1a:	e8 51 de ff ff       	callq  403b70 <_ZNSaIcEC1Ev@plt>
  405d1f:	48 8d 55 e7          	lea    -0x19(%rbp),%rdx
  405d23:	48 8b 45 d8          	mov    -0x28(%rbp),%rax
  405d27:	be 46 4e 41 00       	mov    $0x414e46,%esi
  405d2c:	48 89 c7             	mov    %rax,%rdi
  405d2f:	e8 0c dc ff ff       	callq  403940 <_ZNSt7__cxx1112basic_stringIcSt11char_traitsIcESaIcEEC1EPKcRKS3_@plt>
  405d34:	48 8d 45 e7          	lea    -0x19(%rbp),%rax
  405d38:	48 89 c7             	mov    %rax,%rdi
  405d3b:	e8 b0 da ff ff       	callq  4037f0 <_ZNSaIcED1Ev@plt>
  405d40:	e9 24 01 00 00       	jmpq   405e69 <_ZNK5boost4asio5error6detail13misc_category7messageB5cxx11Ei+0x1b7>
  405d45:	83 7d cc 03          	cmpl   $0x3,-0x34(%rbp)
  405d49:	75 32                	jne    405d7d <_ZNK5boost4asio5error6detail13misc_category7messageB5cxx11Ei+0xcb>
  405d4b:	48 8d 45 e7          	lea    -0x19(%rbp),%rax
  405d4f:	48 89 c7             	mov    %rax,%rdi
  405d52:	e8 19 de ff ff       	callq  403b70 <_ZNSaIcEC1Ev@plt>
  405d57:	48 8d 55 e7          	lea    -0x19(%rbp),%rdx
  405d5b:	48 8b 45 d8          	mov    -0x28(%rbp),%rax
  405d5f:	be 52 4e 41 00       	mov    $0x414e52,%esi
  405d64:	48 89 c7             	mov    %rax,%rdi
  405d67:	e8 d4 db ff ff       	callq  403940 <_ZNSt7__cxx1112basic_stringIcSt11char_traitsIcESaIcEEC1EPKcRKS3_@plt>
  405d6c:	48 8d 45 e7          	lea    -0x19(%rbp),%rax
  405d70:	48 89 c7             	mov    %rax,%rdi
  405d73:	e8 78 da ff ff       	callq  4037f0 <_ZNSaIcED1Ev@plt>
  405d78:	e9 ec 00 00 00       	jmpq   405e69 <_ZNK5boost4asio5error6detail13misc_category7messageB5cxx11Ei+0x1b7>
  405d7d:	83 7d cc 04          	cmpl   $0x4,-0x34(%rbp)
  405d81:	75 32                	jne    405db5 <_ZNK5boost4asio5error6detail13misc_category7messageB5cxx11Ei+0x103>
  405d83:	48 8d 45 e7          	lea    -0x19(%rbp),%rax
  405d87:	48 89 c7             	mov    %rax,%rdi
  405d8a:	e8 e1 dd ff ff       	callq  403b70 <_ZNSaIcEC1Ev@plt>
  405d8f:	48 8d 55 e7          	lea    -0x19(%rbp),%rdx
  405d93:	48 8b 45 d8          	mov    -0x28(%rbp),%rax
  405d97:	be 68 4e 41 00       	mov    $0x414e68,%esi
  405d9c:	48 89 c7             	mov    %rax,%rdi
  405d9f:	e8 9c db ff ff       	callq  403940 <_ZNSt7__cxx1112basic_stringIcSt11char_traitsIcESaIcEEC1EPKcRKS3_@plt>
  405da4:	48 8d 45 e7          	lea    -0x19(%rbp),%rax
  405da8:	48 89 c7             	mov    %rax,%rdi
  405dab:	e8 40 da ff ff       	callq  4037f0 <_ZNSaIcED1Ev@plt>
  405db0:	e9 b4 00 00 00       	jmpq   405e69 <_ZNK5boost4asio5error6detail13misc_category7messageB5cxx11Ei+0x1b7>
  405db5:	48 8d 45 e7          	lea    -0x19(%rbp),%rax
  405db9:	48 89 c7             	mov    %rax,%rdi
  405dbc:	e8 af dd ff ff       	callq  403b70 <_ZNSaIcEC1Ev@plt>
  405dc1:	48 8d 55 e7          	lea    -0x19(%rbp),%rdx
  405dc5:	48 8b 45 d8          	mov    -0x28(%rbp),%rax
  405dc9:	be a2 4e 41 00       	mov    $0x414ea2,%esi
  405dce:	48 89 c7             	mov    %rax,%rdi
  405dd1:	e8 6a db ff ff       	callq  403940 <_ZNSt7__cxx1112basic_stringIcSt11char_traitsIcESaIcEEC1EPKcRKS3_@plt>
  405dd6:	48 8d 45 e7          	lea    -0x19(%rbp),%rax
  405dda:	48 89 c7             	mov    %rax,%rdi
  405ddd:	e8 0e da ff ff       	callq  4037f0 <_ZNSaIcED1Ev@plt>
  405de2:	e9 82 00 00 00       	jmpq   405e69 <_ZNK5boost4asio5error6detail13misc_category7messageB5cxx11Ei+0x1b7>
  405de7:	48 89 c3             	mov    %rax,%rbx
  405dea:	48 8d 45 e7          	lea    -0x19(%rbp),%rax
  405dee:	48 89 c7             	mov    %rax,%rdi
  405df1:	e8 fa d9 ff ff       	callq  4037f0 <_ZNSaIcED1Ev@plt>
  405df6:	48 89 d8             	mov    %rbx,%rax
  405df9:	48 89 c7             	mov    %rax,%rdi
  405dfc:	e8 4f dd ff ff       	callq  403b50 <_Unwind_Resume@plt>
  405e01:	48 89 c3             	mov    %rax,%rbx
  405e04:	48 8d 45 e7          	lea    -0x19(%rbp),%rax
  405e08:	48 89 c7             	mov    %rax,%rdi
  405e0b:	e8 e0 d9 ff ff       	callq  4037f0 <_ZNSaIcED1Ev@plt>
  405e10:	48 89 d8             	mov    %rbx,%rax
  405e13:	48 89 c7             	mov    %rax,%rdi
  405e16:	e8 35 dd ff ff       	callq  403b50 <_Unwind_Resume@plt>
  405e1b:	48 89 c3             	mov    %rax,%rbx
  405e1e:	48 8d 45 e7          	lea    -0x19(%rbp),%rax
  405e22:	48 89 c7             	mov    %rax,%rdi
  405e25:	e8 c6 d9 ff ff       	callq  4037f0 <_ZNSaIcED1Ev@plt>
  405e2a:	48 89 d8             	mov    %rbx,%rax
  405e2d:	48 89 c7             	mov    %rax,%rdi
  405e30:	e8 1b dd ff ff       	callq  403b50 <_Unwind_Resume@plt>
  405e35:	48 89 c3             	mov    %rax,%rbx
  405e38:	48 8d 45 e7          	lea    -0x19(%rbp),%rax
  405e3c:	48 89 c7             	mov    %rax,%rdi
  405e3f:	e8 ac d9 ff ff       	callq  4037f0 <_ZNSaIcED1Ev@plt>
  405e44:	48 89 d8             	mov    %rbx,%rax
  405e47:	48 89 c7             	mov    %rax,%rdi
  405e4a:	e8 01 dd ff ff       	callq  403b50 <_Unwind_Resume@plt>
  405e4f:	48 89 c3             	mov    %rax,%rbx
  405e52:	48 8d 45 e7          	lea    -0x19(%rbp),%rax
  405e56:	48 89 c7             	mov    %rax,%rdi
  405e59:	e8 92 d9 ff ff       	callq  4037f0 <_ZNSaIcED1Ev@plt>
  405e5e:	48 89 d8             	mov    %rbx,%rax
  405e61:	48 89 c7             	mov    %rax,%rdi
  405e64:	e8 e7 dc ff ff       	callq  403b50 <_Unwind_Resume@plt>
  405e69:	48 8b 45 d8          	mov    -0x28(%rbp),%rax
  405e6d:	48 8b 4d e8          	mov    -0x18(%rbp),%rcx
  405e71:	64 48 33 0c 25 28 00 	xor    %fs:0x28,%rcx
  405e78:	00 00 
  405e7a:	74 05                	je     405e81 <_ZNK5boost4asio5error6detail13misc_category7messageB5cxx11Ei+0x1cf>
  405e7c:	e8 af d9 ff ff       	callq  403830 <__stack_chk_fail@plt>
  405e81:	48 83 c4 38          	add    $0x38,%rsp
  405e85:	5b                   	pop    %rbx
  405e86:	5d                   	pop    %rbp
  405e87:	c3                   	retq   

0000000000405e88 <_ZN5boost4asio5error17get_misc_categoryEv>:
  405e88:	55                   	push   %rbp
  405e89:	48 89 e5             	mov    %rsp,%rbp
  405e8c:	b8 60 07 62 00       	mov    $0x620760,%eax
  405e91:	0f b6 00             	movzbl (%rax),%eax
  405e94:	84 c0                	test   %al,%al
  405e96:	75 31                	jne    405ec9 <_ZN5boost4asio5error17get_misc_categoryEv+0x41>
  405e98:	bf 60 07 62 00       	mov    $0x620760,%edi
  405e9d:	e8 ee dc ff ff       	callq  403b90 <__cxa_guard_acquire@plt>
  405ea2:	85 c0                	test   %eax,%eax
  405ea4:	0f 95 c0             	setne  %al
  405ea7:	84 c0                	test   %al,%al
  405ea9:	74 1e                	je     405ec9 <_ZN5boost4asio5error17get_misc_categoryEv+0x41>
  405eab:	bf 60 07 62 00       	mov    $0x620760,%edi
  405eb0:	e8 db d7 ff ff       	callq  403690 <__cxa_guard_release@plt>
  405eb5:	ba 08 04 62 00       	mov    $0x620408,%edx
  405eba:	be 20 04 62 00       	mov    $0x620420,%esi
  405ebf:	bf 3e 42 41 00       	mov    $0x41423e,%edi
  405ec4:	e8 67 d8 ff ff       	callq  403730 <__cxa_atexit@plt>
  405ec9:	b8 20 04 62 00       	mov    $0x620420,%eax
  405ece:	5d                   	pop    %rbp
  405ecf:	c3                   	retq   

0000000000405ed0 <_ZN5boost4asio6detail11posix_mutexC1Ev>:
  405ed0:	55                   	push   %rbp
  405ed1:	48 89 e5             	mov    %rsp,%rbp
  405ed4:	53                   	push   %rbx
  405ed5:	48 83 ec 48          	sub    $0x48,%rsp
  405ed9:	48 89 7d b8          	mov    %rdi,-0x48(%rbp)
  405edd:	64 48 8b 04 25 28 00 	mov    %fs:0x28,%rax
  405ee4:	00 00 
  405ee6:	48 89 45 e8          	mov    %rax,-0x18(%rbp)
  405eea:	31 c0                	xor    %eax,%eax
  405eec:	48 8b 45 b8          	mov    -0x48(%rbp),%rax
  405ef0:	48 89 c7             	mov    %rax,%rdi
  405ef3:	e8 fa ed ff ff       	callq  404cf2 <_ZN5boost4asio6detail11noncopyableC1Ev>
  405ef8:	48 8b 45 b8          	mov    -0x48(%rbp),%rax
  405efc:	be 00 00 00 00       	mov    $0x0,%esi
  405f01:	48 89 c7             	mov    %rax,%rdi
  405f04:	e8 17 db ff ff       	callq  403a20 <pthread_mutex_init@plt>
  405f09:	89 45 cc             	mov    %eax,-0x34(%rbp)
  405f0c:	e8 58 f8 ff ff       	callq  405769 <_ZN5boost4asio5error19get_system_categoryEv>
  405f11:	48 89 c2             	mov    %rax,%rdx
  405f14:	8b 4d cc             	mov    -0x34(%rbp),%ecx
  405f17:	48 8d 45 d0          	lea    -0x30(%rbp),%rax
  405f1b:	89 ce                	mov    %ecx,%esi
  405f1d:	48 89 c7             	mov    %rax,%rdi
  405f20:	e8 55 ef ff ff       	callq  404e7a <_ZN5boost6system10error_codeC1EiRKNS0_14error_categoryE>
  405f25:	48 8d 45 d0          	lea    -0x30(%rbp),%rax
  405f29:	be b2 4e 41 00       	mov    $0x414eb2,%esi
  405f2e:	48 89 c7             	mov    %rax,%rdi
  405f31:	e8 9a f2 ff ff       	callq  4051d0 <_ZN5boost4asio6detail11throw_errorERKNS_6system10error_codeEPKc>
  405f36:	eb 1a                	jmp    405f52 <_ZN5boost4asio6detail11posix_mutexC1Ev+0x82>
  405f38:	48 89 c3             	mov    %rax,%rbx
  405f3b:	48 8b 45 b8          	mov    -0x48(%rbp),%rax
  405f3f:	48 89 c7             	mov    %rax,%rdi
  405f42:	e8 b7 ed ff ff       	callq  404cfe <_ZN5boost4asio6detail11noncopyableD1Ev>
  405f47:	48 89 d8             	mov    %rbx,%rax
  405f4a:	48 89 c7             	mov    %rax,%rdi
  405f4d:	e8 fe db ff ff       	callq  403b50 <_Unwind_Resume@plt>
  405f52:	48 8b 45 e8          	mov    -0x18(%rbp),%rax
  405f56:	64 48 33 04 25 28 00 	xor    %fs:0x28,%rax
  405f5d:	00 00 
  405f5f:	74 05                	je     405f66 <_ZN5boost4asio6detail11posix_mutexC1Ev+0x96>
  405f61:	e8 ca d8 ff ff       	callq  403830 <__stack_chk_fail@plt>
  405f66:	48 83 c4 48          	add    $0x48,%rsp
  405f6a:	5b                   	pop    %rbx
  405f6b:	5d                   	pop    %rbp
  405f6c:	c3                   	retq   
  405f6d:	90                   	nop

0000000000405f6e <_ZN5boost4asio6detail16service_registry16auto_service_ptrD1Ev>:
  405f6e:	55                   	push   %rbp
  405f6f:	48 89 e5             	mov    %rsp,%rbp
  405f72:	48 83 ec 10          	sub    $0x10,%rsp
  405f76:	48 89 7d f8          	mov    %rdi,-0x8(%rbp)
  405f7a:	48 8b 45 f8          	mov    -0x8(%rbp),%rax
  405f7e:	48 8b 00             	mov    (%rax),%rax
  405f81:	48 89 c7             	mov    %rax,%rdi
  405f84:	e8 2b 01 00 00       	callq  4060b4 <_ZN5boost4asio6detail16service_registry7destroyEPNS0_10io_service7serviceE>
  405f89:	90                   	nop
  405f8a:	c9                   	leaveq 
  405f8b:	c3                   	retq   

0000000000405f8c <_ZN5boost4asio6detail16service_registryD1Ev>:
  405f8c:	55                   	push   %rbp
  405f8d:	48 89 e5             	mov    %rsp,%rbp
  405f90:	48 83 ec 20          	sub    $0x20,%rsp
  405f94:	48 89 7d e8          	mov    %rdi,-0x18(%rbp)
  405f98:	48 8b 45 e8          	mov    -0x18(%rbp),%rax
  405f9c:	48 8b 40 38          	mov    0x38(%rax),%rax
  405fa0:	48 89 45 f0          	mov    %rax,-0x10(%rbp)
  405fa4:	48 83 7d f0 00       	cmpq   $0x0,-0x10(%rbp)
  405fa9:	74 25                	je     405fd0 <_ZN5boost4asio6detail16service_registryD1Ev+0x44>
  405fab:	48 8b 45 f0          	mov    -0x10(%rbp),%rax
  405faf:	48 8b 00             	mov    (%rax),%rax
  405fb2:	48 83 c0 10          	add    $0x10,%rax
  405fb6:	48 8b 00             	mov    (%rax),%rax
  405fb9:	48 8b 55 f0          	mov    -0x10(%rbp),%rdx
  405fbd:	48 89 d7             	mov    %rdx,%rdi
  405fc0:	ff d0                	callq  *%rax
  405fc2:	48 8b 45 f0          	mov    -0x10(%rbp),%rax
  405fc6:	48 8b 40 20          	mov    0x20(%rax),%rax
  405fca:	48 89 45 f0          	mov    %rax,-0x10(%rbp)
  405fce:	eb d4                	jmp    405fa4 <_ZN5boost4asio6detail16service_registryD1Ev+0x18>
  405fd0:	48 8b 45 e8          	mov    -0x18(%rbp),%rax
  405fd4:	48 8b 40 38          	mov    0x38(%rax),%rax
  405fd8:	48 85 c0             	test   %rax,%rax
  405fdb:	74 2e                	je     40600b <_ZN5boost4asio6detail16service_registryD1Ev+0x7f>
  405fdd:	48 8b 45 e8          	mov    -0x18(%rbp),%rax
  405fe1:	48 8b 40 38          	mov    0x38(%rax),%rax
  405fe5:	48 8b 40 20          	mov    0x20(%rax),%rax
  405fe9:	48 89 45 f8          	mov    %rax,-0x8(%rbp)
  405fed:	48 8b 45 e8          	mov    -0x18(%rbp),%rax
  405ff1:	48 8b 40 38          	mov    0x38(%rax),%rax
  405ff5:	48 89 c7             	mov    %rax,%rdi
  405ff8:	e8 b7 00 00 00       	callq  4060b4 <_ZN5boost4asio6detail16service_registry7destroyEPNS0_10io_service7serviceE>
  405ffd:	48 8b 45 e8          	mov    -0x18(%rbp),%rax
  406001:	48 8b 55 f8          	mov    -0x8(%rbp),%rdx
  406005:	48 89 50 38          	mov    %rdx,0x38(%rax)
  406009:	eb c5                	jmp    405fd0 <_ZN5boost4asio6detail16service_registryD1Ev+0x44>
  40600b:	48 8b 45 e8          	mov    -0x18(%rbp),%rax
  40600f:	48 83 c0 08          	add    $0x8,%rax
  406013:	48 89 c7             	mov    %rax,%rdi
  406016:	e8 25 f1 ff ff       	callq  405140 <_ZN5boost4asio6detail11posix_mutexD1Ev>
  40601b:	48 8b 45 e8          	mov    -0x18(%rbp),%rax
  40601f:	48 89 c7             	mov    %rax,%rdi
  406022:	e8 d7 ec ff ff       	callq  404cfe <_ZN5boost4asio6detail11noncopyableD1Ev>
  406027:	90                   	nop
  406028:	c9                   	leaveq 
  406029:	c3                   	retq   

000000000040602a <_ZN5boost4asio6detail16service_registry10keys_matchERKNS0_10io_service7service3keyES7_>:
  40602a:	55                   	push   %rbp
  40602b:	48 89 e5             	mov    %rsp,%rbp
  40602e:	48 83 ec 10          	sub    $0x10,%rsp
  406032:	48 89 7d f8          	mov    %rdi,-0x8(%rbp)
  406036:	48 89 75 f0          	mov    %rsi,-0x10(%rbp)
  40603a:	48 8b 45 f8          	mov    -0x8(%rbp),%rax
  40603e:	48 8b 40 08          	mov    0x8(%rax),%rax
  406042:	48 85 c0             	test   %rax,%rax
  406045:	74 29                	je     406070 <_ZN5boost4asio6detail16service_registry10keys_matchERKNS0_10io_service7service3keyES7_+0x46>
  406047:	48 8b 45 f0          	mov    -0x10(%rbp),%rax
  40604b:	48 8b 40 08          	mov    0x8(%rax),%rax
  40604f:	48 85 c0             	test   %rax,%rax
  406052:	74 1c                	je     406070 <_ZN5boost4asio6detail16service_registry10keys_matchERKNS0_10io_service7service3keyES7_+0x46>
  406054:	48 8b 45 f8          	mov    -0x8(%rbp),%rax
  406058:	48 8b 50 08          	mov    0x8(%rax),%rdx
  40605c:	48 8b 45 f0          	mov    -0x10(%rbp),%rax
  406060:	48 8b 40 08          	mov    0x8(%rax),%rax
  406064:	48 39 c2             	cmp    %rax,%rdx
  406067:	75 07                	jne    406070 <_ZN5boost4asio6detail16service_registry10keys_matchERKNS0_10io_service7service3keyES7_+0x46>
  406069:	b8 01 00 00 00       	mov    $0x1,%eax
  40606e:	eb 41                	jmp    4060b1 <_ZN5boost4asio6detail16service_registry10keys_matchERKNS0_10io_service7service3keyES7_+0x87>
  406070:	48 8b 45 f8          	mov    -0x8(%rbp),%rax
  406074:	48 8b 00             	mov    (%rax),%rax
  406077:	48 85 c0             	test   %rax,%rax
  40607a:	74 30                	je     4060ac <_ZN5boost4asio6detail16service_registry10keys_matchERKNS0_10io_service7service3keyES7_+0x82>
  40607c:	48 8b 45 f0          	mov    -0x10(%rbp),%rax
  406080:	48 8b 00             	mov    (%rax),%rax
  406083:	48 85 c0             	test   %rax,%rax
  406086:	74 24                	je     4060ac <_ZN5boost4asio6detail16service_registry10keys_matchERKNS0_10io_service7service3keyES7_+0x82>
  406088:	48 8b 45 f0          	mov    -0x10(%rbp),%rax
  40608c:	48 8b 10             	mov    (%rax),%rdx
  40608f:	48 8b 45 f8          	mov    -0x8(%rbp),%rax
  406093:	48 8b 00             	mov    (%rax),%rax
  406096:	48 89 d6             	mov    %rdx,%rsi
  406099:	48 89 c7             	mov    %rax,%rdi
  40609c:	e8 ef eb ff ff       	callq  404c90 <_ZNKSt9type_infoeqERKS_>
  4060a1:	84 c0                	test   %al,%al
  4060a3:	74 07                	je     4060ac <_ZN5boost4asio6detail16service_registry10keys_matchERKNS0_10io_service7service3keyES7_+0x82>
  4060a5:	b8 01 00 00 00       	mov    $0x1,%eax
  4060aa:	eb 05                	jmp    4060b1 <_ZN5boost4asio6detail16service_registry10keys_matchERKNS0_10io_service7service3keyES7_+0x87>
  4060ac:	b8 00 00 00 00       	mov    $0x0,%eax
  4060b1:	c9                   	leaveq 
  4060b2:	c3                   	retq   
  4060b3:	90                   	nop

00000000004060b4 <_ZN5boost4asio6detail16service_registry7destroyEPNS0_10io_service7serviceE>:
  4060b4:	55                   	push   %rbp
  4060b5:	48 89 e5             	mov    %rsp,%rbp
  4060b8:	48 83 ec 10          	sub    $0x10,%rsp
  4060bc:	48 89 7d f8          	mov    %rdi,-0x8(%rbp)
  4060c0:	48 83 7d f8 00       	cmpq   $0x0,-0x8(%rbp)
  4060c5:	74 17                	je     4060de <_ZN5boost4asio6detail16service_registry7destroyEPNS0_10io_service7serviceE+0x2a>
  4060c7:	48 8b 45 f8          	mov    -0x8(%rbp),%rax
  4060cb:	48 8b 00             	mov    (%rax),%rax
  4060ce:	48 83 c0 08          	add    $0x8,%rax
  4060d2:	48 8b 00             	mov    (%rax),%rax
  4060d5:	48 8b 55 f8          	mov    -0x8(%rbp),%rdx
  4060d9:	48 89 d7             	mov    %rdx,%rdi
  4060dc:	ff d0                	callq  *%rax
  4060de:	90                   	nop
  4060df:	c9                   	leaveq 
  4060e0:	c3                   	retq   
  4060e1:	90                   	nop

00000000004060e2 <_ZN5boost4asio6detail16service_registry14do_use_serviceERKNS0_10io_service7service3keyEPFPS4_RS3_E>:
  4060e2:	55                   	push   %rbp
  4060e3:	48 89 e5             	mov    %rsp,%rbp
  4060e6:	53                   	push   %rbx
  4060e7:	48 83 ec 58          	sub    $0x58,%rsp
  4060eb:	48 89 7d b8          	mov    %rdi,-0x48(%rbp)
  4060ef:	48 89 75 b0          	mov    %rsi,-0x50(%rbp)
  4060f3:	48 89 55 a8          	mov    %rdx,-0x58(%rbp)
  4060f7:	64 48 8b 04 25 28 00 	mov    %fs:0x28,%rax
  4060fe:	00 00 
  406100:	48 89 45 e8          	mov    %rax,-0x18(%rbp)
  406104:	31 c0                	xor    %eax,%eax
  406106:	48 8b 45 b8          	mov    -0x48(%rbp),%rax
  40610a:	48 8d 50 08          	lea    0x8(%rax),%rdx
  40610e:	48 8d 45 d0          	lea    -0x30(%rbp),%rax
  406112:	48 89 d6             	mov    %rdx,%rsi
  406115:	48 89 c7             	mov    %rax,%rdi
  406118:	e8 05 56 00 00       	callq  40b722 <_ZN5boost4asio6detail11scoped_lockINS1_11posix_mutexEEC1ERS3_>
  40611d:	48 8b 45 b8          	mov    -0x48(%rbp),%rax
  406121:	48 8b 40 38          	mov    0x38(%rax),%rax
  406125:	48 89 45 c8          	mov    %rax,-0x38(%rbp)
  406129:	48 83 7d c8 00       	cmpq   $0x0,-0x38(%rbp)
  40612e:	74 32                	je     406162 <_ZN5boost4asio6detail16service_registry14do_use_serviceERKNS0_10io_service7service3keyEPFPS4_RS3_E+0x80>
  406130:	48 8b 45 c8          	mov    -0x38(%rbp),%rax
  406134:	48 8d 50 08          	lea    0x8(%rax),%rdx
  406138:	48 8b 45 b0          	mov    -0x50(%rbp),%rax
  40613c:	48 89 c6             	mov    %rax,%rsi
  40613f:	48 89 d7             	mov    %rdx,%rdi
  406142:	e8 e3 fe ff ff       	callq  40602a <_ZN5boost4asio6detail16service_registry10keys_matchERKNS0_10io_service7service3keyES7_>
  406147:	84 c0                	test   %al,%al
  406149:	74 09                	je     406154 <_ZN5boost4asio6detail16service_registry14do_use_serviceERKNS0_10io_service7service3keyEPFPS4_RS3_E+0x72>
  40614b:	48 8b 5d c8          	mov    -0x38(%rbp),%rbx
  40614f:	e9 cc 00 00 00       	jmpq   406220 <_ZN5boost4asio6detail16service_registry14do_use_serviceERKNS0_10io_service7service3keyEPFPS4_RS3_E+0x13e>
  406154:	48 8b 45 c8          	mov    -0x38(%rbp),%rax
  406158:	48 8b 40 20          	mov    0x20(%rax),%rax
  40615c:	48 89 45 c8          	mov    %rax,-0x38(%rbp)
  406160:	eb c7                	jmp    406129 <_ZN5boost4asio6detail16service_registry14do_use_serviceERKNS0_10io_service7service3keyEPFPS4_RS3_E+0x47>
  406162:	48 8d 45 d0          	lea    -0x30(%rbp),%rax
  406166:	48 89 c7             	mov    %rax,%rdi
  406169:	e8 2c 56 00 00       	callq  40b79a <_ZN5boost4asio6detail11scoped_lockINS1_11posix_mutexEE6unlockEv>
  40616e:	48 8b 45 b8          	mov    -0x48(%rbp),%rax
  406172:	48 8b 50 30          	mov    0x30(%rax),%rdx
  406176:	48 8b 45 a8          	mov    -0x58(%rbp),%rax
  40617a:	48 89 d7             	mov    %rdx,%rdi
  40617d:	ff d0                	callq  *%rax
  40617f:	48 89 45 c0          	mov    %rax,-0x40(%rbp)
  406183:	48 8b 4d c0          	mov    -0x40(%rbp),%rcx
  406187:	48 8b 45 b0          	mov    -0x50(%rbp),%rax
  40618b:	48 8b 50 08          	mov    0x8(%rax),%rdx
  40618f:	48 8b 00             	mov    (%rax),%rax
  406192:	48 89 41 08          	mov    %rax,0x8(%rcx)
  406196:	48 89 51 10          	mov    %rdx,0x10(%rcx)
  40619a:	48 8d 45 d0          	lea    -0x30(%rbp),%rax
  40619e:	48 89 c7             	mov    %rax,%rdi
  4061a1:	e8 26 56 00 00       	callq  40b7cc <_ZN5boost4asio6detail11scoped_lockINS1_11posix_mutexEE4lockEv>
  4061a6:	48 8b 45 b8          	mov    -0x48(%rbp),%rax
  4061aa:	48 8b 40 38          	mov    0x38(%rax),%rax
  4061ae:	48 89 45 c8          	mov    %rax,-0x38(%rbp)
  4061b2:	48 83 7d c8 00       	cmpq   $0x0,-0x38(%rbp)
  4061b7:	74 2f                	je     4061e8 <_ZN5boost4asio6detail16service_registry14do_use_serviceERKNS0_10io_service7service3keyEPFPS4_RS3_E+0x106>
  4061b9:	48 8b 45 c8          	mov    -0x38(%rbp),%rax
  4061bd:	48 8d 50 08          	lea    0x8(%rax),%rdx
  4061c1:	48 8b 45 b0          	mov    -0x50(%rbp),%rax
  4061c5:	48 89 c6             	mov    %rax,%rsi
  4061c8:	48 89 d7             	mov    %rdx,%rdi
  4061cb:	e8 5a fe ff ff       	callq  40602a <_ZN5boost4asio6detail16service_registry10keys_matchERKNS0_10io_service7service3keyES7_>
  4061d0:	84 c0                	test   %al,%al
  4061d2:	74 06                	je     4061da <_ZN5boost4asio6detail16service_registry14do_use_serviceERKNS0_10io_service7service3keyEPFPS4_RS3_E+0xf8>
  4061d4:	48 8b 5d c8          	mov    -0x38(%rbp),%rbx
  4061d8:	eb 3a                	jmp    406214 <_ZN5boost4asio6detail16service_registry14do_use_serviceERKNS0_10io_service7service3keyEPFPS4_RS3_E+0x132>
  4061da:	48 8b 45 c8          	mov    -0x38(%rbp),%rax
  4061de:	48 8b 40 20          	mov    0x20(%rax),%rax
  4061e2:	48 89 45 c8          	mov    %rax,-0x38(%rbp)
  4061e6:	eb ca                	jmp    4061b2 <_ZN5boost4asio6detail16service_registry14do_use_serviceERKNS0_10io_service7service3keyEPFPS4_RS3_E+0xd0>
  4061e8:	48 8b 45 c0          	mov    -0x40(%rbp),%rax
  4061ec:	48 8b 55 b8          	mov    -0x48(%rbp),%rdx
  4061f0:	48 8b 52 38          	mov    0x38(%rdx),%rdx
  4061f4:	48 89 50 20          	mov    %rdx,0x20(%rax)
  4061f8:	48 8b 55 c0          	mov    -0x40(%rbp),%rdx
  4061fc:	48 8b 45 b8          	mov    -0x48(%rbp),%rax
  406200:	48 89 50 38          	mov    %rdx,0x38(%rax)
  406204:	48 c7 45 c0 00 00 00 	movq   $0x0,-0x40(%rbp)
  40620b:	00 
  40620c:	48 8b 45 b8          	mov    -0x48(%rbp),%rax
  406210:	48 8b 58 38          	mov    0x38(%rax),%rbx
  406214:	48 8d 45 c0          	lea    -0x40(%rbp),%rax
  406218:	48 89 c7             	mov    %rax,%rdi
  40621b:	e8 4e fd ff ff       	callq  405f6e <_ZN5boost4asio6detail16service_registry16auto_service_ptrD1Ev>
  406220:	48 8d 45 d0          	lea    -0x30(%rbp),%rax
  406224:	48 89 c7             	mov    %rax,%rdi
  406227:	e8 38 55 00 00       	callq  40b764 <_ZN5boost4asio6detail11scoped_lockINS1_11posix_mutexEED1Ev>
  40622c:	48 89 d8             	mov    %rbx,%rax
  40622f:	48 8b 4d e8          	mov    -0x18(%rbp),%rcx
  406233:	64 48 33 0c 25 28 00 	xor    %fs:0x28,%rcx
  40623a:	00 00 
  40623c:	74 21                	je     40625f <_ZN5boost4asio6detail16service_registry14do_use_serviceERKNS0_10io_service7service3keyEPFPS4_RS3_E+0x17d>
  40623e:	eb 1a                	jmp    40625a <_ZN5boost4asio6detail16service_registry14do_use_serviceERKNS0_10io_service7service3keyEPFPS4_RS3_E+0x178>
  406240:	48 89 c3             	mov    %rax,%rbx
  406243:	48 8d 45 d0          	lea    -0x30(%rbp),%rax
  406247:	48 89 c7             	mov    %rax,%rdi
  40624a:	e8 15 55 00 00       	callq  40b764 <_ZN5boost4asio6detail11scoped_lockINS1_11posix_mutexEED1Ev>
  40624f:	48 89 d8             	mov    %rbx,%rax
  406252:	48 89 c7             	mov    %rax,%rdi
  406255:	e8 f6 d8 ff ff       	callq  403b50 <_Unwind_Resume@plt>
  40625a:	e8 d1 d5 ff ff       	callq  403830 <__stack_chk_fail@plt>
  40625f:	48 83 c4 58          	add    $0x58,%rsp
  406263:	5b                   	pop    %rbx
  406264:	5d                   	pop    %rbp
  406265:	c3                   	retq   

0000000000406266 <_ZN5boost4asio11use_serviceINS0_6detail15task_io_serviceEEERT_RNS0_10io_serviceE>:
  406266:	55                   	push   %rbp
  406267:	48 89 e5             	mov    %rsp,%rbp
  40626a:	48 89 7d f8          	mov    %rdi,-0x8(%rbp)
  40626e:	48 8b 45 f8          	mov    -0x8(%rbp),%rax
  406272:	48 8b 40 08          	mov    0x8(%rax),%rax
  406276:	5d                   	pop    %rbp
  406277:	c3                   	retq   

0000000000406278 <_ZNSt13__atomic_baseIlEC2El>:
  406278:	55                   	push   %rbp
  406279:	48 89 e5             	mov    %rsp,%rbp
  40627c:	48 89 7d f8          	mov    %rdi,-0x8(%rbp)
  406280:	48 89 75 f0          	mov    %rsi,-0x10(%rbp)
  406284:	48 8b 45 f8          	mov    -0x8(%rbp),%rax
  406288:	48 8b 55 f0          	mov    -0x10(%rbp),%rdx
  40628c:	48 89 10             	mov    %rdx,(%rax)
  40628f:	90                   	nop
  406290:	5d                   	pop    %rbp
  406291:	c3                   	retq   

0000000000406292 <_ZNSt6atomicIlEC1El>:
  406292:	55                   	push   %rbp
  406293:	48 89 e5             	mov    %rsp,%rbp
  406296:	48 83 ec 10          	sub    $0x10,%rsp
  40629a:	48 89 7d f8          	mov    %rdi,-0x8(%rbp)
  40629e:	48 89 75 f0          	mov    %rsi,-0x10(%rbp)
  4062a2:	48 8b 45 f8          	mov    -0x8(%rbp),%rax
  4062a6:	48 8b 55 f0          	mov    -0x10(%rbp),%rdx
  4062aa:	48 89 d6             	mov    %rdx,%rsi
  4062ad:	48 89 c7             	mov    %rax,%rdi
  4062b0:	e8 c3 ff ff ff       	callq  406278 <_ZNSt13__atomic_baseIlEC2El>
  4062b5:	90                   	nop
  4062b6:	c9                   	leaveq 
  4062b7:	c3                   	retq   

00000000004062b8 <_ZN5boost4asio6detail9incrementERSt6atomicIlEl>:
  4062b8:	55                   	push   %rbp
  4062b9:	48 89 e5             	mov    %rsp,%rbp
  4062bc:	48 83 ec 10          	sub    $0x10,%rsp
  4062c0:	48 89 7d f8          	mov    %rdi,-0x8(%rbp)
  4062c4:	48 89 75 f0          	mov    %rsi,-0x10(%rbp)
  4062c8:	48 8b 45 f8          	mov    -0x8(%rbp),%rax
  4062cc:	48 8b 55 f0          	mov    -0x10(%rbp),%rdx
  4062d0:	48 89 d6             	mov    %rdx,%rsi
  4062d3:	48 89 c7             	mov    %rax,%rdi
  4062d6:	e8 27 55 00 00       	callq  40b802 <_ZNSt13__atomic_baseIlEpLEl>
  4062db:	90                   	nop
  4062dc:	c9                   	leaveq 
  4062dd:	c3                   	retq   

00000000004062de <_ZN5boost4asio6detail11posix_eventD1Ev>:
  4062de:	55                   	push   %rbp
  4062df:	48 89 e5             	mov    %rsp,%rbp
  4062e2:	48 83 ec 10          	sub    $0x10,%rsp
  4062e6:	48 89 7d f8          	mov    %rdi,-0x8(%rbp)
  4062ea:	48 8b 45 f8          	mov    -0x8(%rbp),%rax
  4062ee:	48 89 c7             	mov    %rax,%rdi
  4062f1:	e8 2a d9 ff ff       	callq  403c20 <pthread_cond_destroy@plt>
  4062f6:	48 8b 45 f8          	mov    -0x8(%rbp),%rax
  4062fa:	48 89 c7             	mov    %rax,%rdi
  4062fd:	e8 fc e9 ff ff       	callq  404cfe <_ZN5boost4asio6detail11noncopyableD1Ev>
  406302:	90                   	nop
  406303:	c9                   	leaveq 
  406304:	c3                   	retq   
  406305:	90                   	nop

0000000000406306 <_ZN5boost4asio6detail11posix_eventC1Ev>:
  406306:	55                   	push   %rbp
  406307:	48 89 e5             	mov    %rsp,%rbp
  40630a:	53                   	push   %rbx
  40630b:	48 83 ec 48          	sub    $0x48,%rsp
  40630f:	48 89 7d b8          	mov    %rdi,-0x48(%rbp)
  406313:	64 48 8b 04 25 28 00 	mov    %fs:0x28,%rax
  40631a:	00 00 
  40631c:	48 89 45 e8          	mov    %rax,-0x18(%rbp)
  406320:	31 c0                	xor    %eax,%eax
  406322:	48 8b 45 b8          	mov    -0x48(%rbp),%rax
  406326:	48 89 c7             	mov    %rax,%rdi
  406329:	e8 c4 e9 ff ff       	callq  404cf2 <_ZN5boost4asio6detail11noncopyableC1Ev>
  40632e:	48 8b 45 b8          	mov    -0x48(%rbp),%rax
  406332:	48 c7 40 30 00 00 00 	movq   $0x0,0x30(%rax)
  406339:	00 
  40633a:	48 8b 45 b8          	mov    -0x48(%rbp),%rax
  40633e:	be 00 00 00 00       	mov    $0x0,%esi
  406343:	48 89 c7             	mov    %rax,%rdi
  406346:	e8 15 d5 ff ff       	callq  403860 <pthread_cond_init@plt>
  40634b:	89 45 cc             	mov    %eax,-0x34(%rbp)
  40634e:	e8 16 f4 ff ff       	callq  405769 <_ZN5boost4asio5error19get_system_categoryEv>
  406353:	48 89 c2             	mov    %rax,%rdx
  406356:	8b 4d cc             	mov    -0x34(%rbp),%ecx
  406359:	48 8d 45 d0          	lea    -0x30(%rbp),%rax
  40635d:	89 ce                	mov    %ecx,%esi
  40635f:	48 89 c7             	mov    %rax,%rdi
  406362:	e8 13 eb ff ff       	callq  404e7a <_ZN5boost6system10error_codeC1EiRKNS0_14error_categoryE>
  406367:	48 8d 45 d0          	lea    -0x30(%rbp),%rax
  40636b:	be b8 4e 41 00       	mov    $0x414eb8,%esi
  406370:	48 89 c7             	mov    %rax,%rdi
  406373:	e8 58 ee ff ff       	callq  4051d0 <_ZN5boost4asio6detail11throw_errorERKNS_6system10error_codeEPKc>
  406378:	eb 1a                	jmp    406394 <_ZN5boost4asio6detail11posix_eventC1Ev+0x8e>
  40637a:	48 89 c3             	mov    %rax,%rbx
  40637d:	48 8b 45 b8          	mov    -0x48(%rbp),%rax
  406381:	48 89 c7             	mov    %rax,%rdi
  406384:	e8 75 e9 ff ff       	callq  404cfe <_ZN5boost4asio6detail11noncopyableD1Ev>
  406389:	48 89 d8             	mov    %rbx,%rax
  40638c:	48 89 c7             	mov    %rax,%rdi
  40638f:	e8 bc d7 ff ff       	callq  403b50 <_Unwind_Resume@plt>
  406394:	48 8b 45 e8          	mov    -0x18(%rbp),%rax
  406398:	64 48 33 04 25 28 00 	xor    %fs:0x28,%rax
  40639f:	00 00 
  4063a1:	74 05                	je     4063a8 <_ZN5boost4asio6detail11posix_eventC1Ev+0xa2>
  4063a3:	e8 88 d4 ff ff       	callq  403830 <__stack_chk_fail@plt>
  4063a8:	48 83 c4 48          	add    $0x48,%rsp
  4063ac:	5b                   	pop    %rbx
  4063ad:	5d                   	pop    %rbp
  4063ae:	c3                   	retq   
  4063af:	90                   	nop

00000000004063b0 <_ZN5boost4asio6detail25task_io_service_operation8completeERNS1_15task_io_serviceERKNS_6system10error_codeEm>:
  4063b0:	55                   	push   %rbp
  4063b1:	48 89 e5             	mov    %rsp,%rbp
  4063b4:	48 83 ec 20          	sub    $0x20,%rsp
  4063b8:	48 89 7d f8          	mov    %rdi,-0x8(%rbp)
  4063bc:	48 89 75 f0          	mov    %rsi,-0x10(%rbp)
  4063c0:	48 89 55 e8          	mov    %rdx,-0x18(%rbp)
  4063c4:	48 89 4d e0          	mov    %rcx,-0x20(%rbp)
  4063c8:	48 8b 45 f8          	mov    -0x8(%rbp),%rax
  4063cc:	48 8b 40 08          	mov    0x8(%rax),%rax
  4063d0:	48 8b 4d e0          	mov    -0x20(%rbp),%rcx
  4063d4:	48 8b 55 e8          	mov    -0x18(%rbp),%rdx
  4063d8:	48 8b 75 f8          	mov    -0x8(%rbp),%rsi
  4063dc:	48 8b 7d f0          	mov    -0x10(%rbp),%rdi
  4063e0:	ff d0                	callq  *%rax
  4063e2:	90                   	nop
  4063e3:	c9                   	leaveq 
  4063e4:	c3                   	retq   
  4063e5:	90                   	nop

00000000004063e6 <_ZN5boost4asio6detail25task_io_service_operation7destroyEv>:
  4063e6:	55                   	push   %rbp
  4063e7:	48 89 e5             	mov    %rsp,%rbp
  4063ea:	53                   	push   %rbx
  4063eb:	48 83 ec 38          	sub    $0x38,%rsp
  4063ef:	48 89 7d c8          	mov    %rdi,-0x38(%rbp)
  4063f3:	64 48 8b 04 25 28 00 	mov    %fs:0x28,%rax
  4063fa:	00 00 
  4063fc:	48 89 45 e8          	mov    %rax,-0x18(%rbp)
  406400:	31 c0                	xor    %eax,%eax
  406402:	48 8b 45 c8          	mov    -0x38(%rbp),%rax
  406406:	48 8b 58 08          	mov    0x8(%rax),%rbx
  40640a:	48 8d 45 d0          	lea    -0x30(%rbp),%rax
  40640e:	48 89 c7             	mov    %rax,%rdi
  406411:	e8 3a ea ff ff       	callq  404e50 <_ZN5boost6system10error_codeC1Ev>
  406416:	48 8d 55 d0          	lea    -0x30(%rbp),%rdx
  40641a:	48 8b 45 c8          	mov    -0x38(%rbp),%rax
  40641e:	b9 00 00 00 00       	mov    $0x0,%ecx
  406423:	48 89 c6             	mov    %rax,%rsi
  406426:	bf 00 00 00 00       	mov    $0x0,%edi
  40642b:	ff d3                	callq  *%rbx
  40642d:	90                   	nop
  40642e:	48 8b 45 e8          	mov    -0x18(%rbp),%rax
  406432:	64 48 33 04 25 28 00 	xor    %fs:0x28,%rax
  406439:	00 00 
  40643b:	74 05                	je     406442 <_ZN5boost4asio6detail25task_io_service_operation7destroyEv+0x5c>
  40643d:	e8 ee d3 ff ff       	callq  403830 <__stack_chk_fail@plt>
  406442:	48 83 c4 38          	add    $0x38,%rsp
  406446:	5b                   	pop    %rbx
  406447:	5d                   	pop    %rbp
  406448:	c3                   	retq   
  406449:	90                   	nop

000000000040644a <_ZN5boost4asio6detail25task_io_service_operationC1EPFvPNS1_15task_io_serviceEPS2_RKNS_6system10error_codeEmE>:
  40644a:	55                   	push   %rbp
  40644b:	48 89 e5             	mov    %rsp,%rbp
  40644e:	48 89 7d f8          	mov    %rdi,-0x8(%rbp)
  406452:	48 89 75 f0          	mov    %rsi,-0x10(%rbp)
  406456:	48 8b 45 f8          	mov    -0x8(%rbp),%rax
  40645a:	48 c7 00 00 00 00 00 	movq   $0x0,(%rax)
  406461:	48 8b 45 f8          	mov    -0x8(%rbp),%rax
  406465:	48 8b 55 f0          	mov    -0x10(%rbp),%rdx
  406469:	48 89 50 08          	mov    %rdx,0x8(%rax)
  40646d:	48 8b 45 f8          	mov    -0x8(%rbp),%rax
  406471:	c7 40 10 00 00 00 00 	movl   $0x0,0x10(%rax)
  406478:	90                   	nop
  406479:	5d                   	pop    %rbp
  40647a:	c3                   	retq   
  40647b:	90                   	nop

000000000040647c <_ZN5boost4asio6detail25task_io_service_operationD1Ev>:
  40647c:	55                   	push   %rbp
  40647d:	48 89 e5             	mov    %rsp,%rbp
  406480:	48 89 7d f8          	mov    %rdi,-0x8(%rbp)
  406484:	90                   	nop
  406485:	5d                   	pop    %rbp
  406486:	c3                   	retq   
  406487:	90                   	nop

0000000000406488 <_ZN5boost4asio6detail15task_io_service12work_startedEv>:
  406488:	55                   	push   %rbp
  406489:	48 89 e5             	mov    %rsp,%rbp
  40648c:	48 83 ec 10          	sub    $0x10,%rsp
  406490:	48 89 7d f8          	mov    %rdi,-0x8(%rbp)
  406494:	48 8b 45 f8          	mov    -0x8(%rbp),%rax
  406498:	48 05 b8 00 00 00    	add    $0xb8,%rax
  40649e:	48 89 c7             	mov    %rax,%rdi
  4064a1:	e8 7e 53 00 00       	callq  40b824 <_ZNSt13__atomic_baseIlEppEv>
  4064a6:	90                   	nop
  4064a7:	c9                   	leaveq 
  4064a8:	c3                   	retq   
  4064a9:	90                   	nop

00000000004064aa <_ZN5boost4asio6detail15task_io_service13work_finishedEv>:
  4064aa:	55                   	push   %rbp
  4064ab:	48 89 e5             	mov    %rsp,%rbp
  4064ae:	48 83 ec 10          	sub    $0x10,%rsp
  4064b2:	48 89 7d f8          	mov    %rdi,-0x8(%rbp)
  4064b6:	48 8b 45 f8          	mov    -0x8(%rbp),%rax
  4064ba:	48 05 b8 00 00 00    	add    $0xb8,%rax
  4064c0:	48 89 c7             	mov    %rax,%rdi
  4064c3:	e8 78 53 00 00       	callq  40b840 <_ZNSt13__atomic_baseIlEmmEv>
  4064c8:	48 85 c0             	test   %rax,%rax
  4064cb:	0f 94 c0             	sete   %al
  4064ce:	84 c0                	test   %al,%al
  4064d0:	74 0c                	je     4064de <_ZN5boost4asio6detail15task_io_service13work_finishedEv+0x34>
  4064d2:	48 8b 45 f8          	mov    -0x8(%rbp),%rax
  4064d6:	48 89 c7             	mov    %rax,%rdi
  4064d9:	e8 cc 1f 00 00       	callq  4084aa <_ZN5boost4asio6detail15task_io_service4stopEv>
  4064de:	90                   	nop
  4064df:	c9                   	leaveq 
  4064e0:	c3                   	retq   
  4064e1:	90                   	nop

00000000004064e2 <_ZN5boost4asio6detail15task_io_service14task_operationC1Ev>:
  4064e2:	55                   	push   %rbp
  4064e3:	48 89 e5             	mov    %rsp,%rbp
  4064e6:	48 83 ec 10          	sub    $0x10,%rsp
  4064ea:	48 89 7d f8          	mov    %rdi,-0x8(%rbp)
  4064ee:	48 8b 45 f8          	mov    -0x8(%rbp),%rax
  4064f2:	be 00 00 00 00       	mov    $0x0,%esi
  4064f7:	48 89 c7             	mov    %rax,%rdi
  4064fa:	e8 4b ff ff ff       	callq  40644a <_ZN5boost4asio6detail25task_io_service_operationC1EPFvPNS1_15task_io_serviceEPS2_RKNS_6system10error_codeEmE>
  4064ff:	90                   	nop
  406500:	c9                   	leaveq 
  406501:	c3                   	retq   

0000000000406502 <_ZNSt14numeric_limitsImE3maxEv>:
  406502:	55                   	push   %rbp
  406503:	48 89 e5             	mov    %rsp,%rbp
  406506:	48 c7 c0 ff ff ff ff 	mov    $0xffffffffffffffff,%rax
  40650d:	5d                   	pop    %rbp
  40650e:	c3                   	retq   
  40650f:	90                   	nop

0000000000406510 <_ZN5boost4asio6detail10reactor_op7performEv>:
  406510:	55                   	push   %rbp
  406511:	48 89 e5             	mov    %rsp,%rbp
  406514:	48 83 ec 10          	sub    $0x10,%rsp
  406518:	48 89 7d f8          	mov    %rdi,-0x8(%rbp)
  40651c:	48 8b 45 f8          	mov    -0x8(%rbp),%rax
  406520:	48 8b 40 30          	mov    0x30(%rax),%rax
  406524:	48 8b 55 f8          	mov    -0x8(%rbp),%rdx
  406528:	48 89 d7             	mov    %rdx,%rdi
  40652b:	ff d0                	callq  *%rax
  40652d:	c9                   	leaveq 
  40652e:	c3                   	retq   
  40652f:	90                   	nop

0000000000406530 <_ZNK5boost4asio6detail26eventfd_select_interrupter15read_descriptorEv>:
  406530:	55                   	push   %rbp
  406531:	48 89 e5             	mov    %rsp,%rbp
  406534:	48 89 7d f8          	mov    %rdi,-0x8(%rbp)
  406538:	48 8b 45 f8          	mov    -0x8(%rbp),%rax
  40653c:	8b 00                	mov    (%rax),%eax
  40653e:	5d                   	pop    %rbp
  40653f:	c3                   	retq   

0000000000406540 <_ZN5boost4asio6detail26eventfd_select_interrupterC1Ev>:
  406540:	55                   	push   %rbp
  406541:	48 89 e5             	mov    %rsp,%rbp
  406544:	48 83 ec 10          	sub    $0x10,%rsp
  406548:	48 89 7d f8          	mov    %rdi,-0x8(%rbp)
  40654c:	48 8b 45 f8          	mov    -0x8(%rbp),%rax
  406550:	48 89 c7             	mov    %rax,%rdi
  406553:	e8 04 00 00 00       	callq  40655c <_ZN5boost4asio6detail26eventfd_select_interrupter16open_descriptorsEv>
  406558:	90                   	nop
  406559:	c9                   	leaveq 
  40655a:	c3                   	retq   
  40655b:	90                   	nop

000000000040655c <_ZN5boost4asio6detail26eventfd_select_interrupter16open_descriptorsEv>:
  40655c:	55                   	push   %rbp
  40655d:	48 89 e5             	mov    %rsp,%rbp
  406560:	53                   	push   %rbx
  406561:	48 83 ec 38          	sub    $0x38,%rsp
  406565:	48 89 7d c8          	mov    %rdi,-0x38(%rbp)
  406569:	64 48 8b 04 25 28 00 	mov    %fs:0x28,%rax
  406570:	00 00 
  406572:	48 89 45 e8          	mov    %rax,-0x18(%rbp)
  406576:	31 c0                	xor    %eax,%eax
  406578:	be 00 08 08 00       	mov    $0x80800,%esi
  40657d:	bf 00 00 00 00       	mov    $0x0,%edi
  406582:	e8 e9 d2 ff ff       	callq  403870 <eventfd@plt>
  406587:	89 c2                	mov    %eax,%edx
  406589:	48 8b 45 c8          	mov    -0x38(%rbp),%rax
  40658d:	89 10                	mov    %edx,(%rax)
  40658f:	48 8b 45 c8          	mov    -0x38(%rbp),%rax
  406593:	8b 10                	mov    (%rax),%edx
  406595:	48 8b 45 c8          	mov    -0x38(%rbp),%rax
  406599:	89 50 04             	mov    %edx,0x4(%rax)
  40659c:	48 8b 45 c8          	mov    -0x38(%rbp),%rax
  4065a0:	8b 00                	mov    (%rax),%eax
  4065a2:	83 f8 ff             	cmp    $0xffffffff,%eax
  4065a5:	75 73                	jne    40661a <_ZN5boost4asio6detail26eventfd_select_interrupter16open_descriptorsEv+0xbe>
  4065a7:	e8 f4 ce ff ff       	callq  4034a0 <__errno_location@plt>
  4065ac:	8b 00                	mov    (%rax),%eax
  4065ae:	83 f8 16             	cmp    $0x16,%eax
  4065b1:	75 67                	jne    40661a <_ZN5boost4asio6detail26eventfd_select_interrupter16open_descriptorsEv+0xbe>
  4065b3:	be 00 00 00 00       	mov    $0x0,%esi
  4065b8:	bf 00 00 00 00       	mov    $0x0,%edi
  4065bd:	e8 ae d2 ff ff       	callq  403870 <eventfd@plt>
  4065c2:	89 c2                	mov    %eax,%edx
  4065c4:	48 8b 45 c8          	mov    -0x38(%rbp),%rax
  4065c8:	89 10                	mov    %edx,(%rax)
  4065ca:	48 8b 45 c8          	mov    -0x38(%rbp),%rax
  4065ce:	8b 10                	mov    (%rax),%edx
  4065d0:	48 8b 45 c8          	mov    -0x38(%rbp),%rax
  4065d4:	89 50 04             	mov    %edx,0x4(%rax)
  4065d7:	48 8b 45 c8          	mov    -0x38(%rbp),%rax
  4065db:	8b 00                	mov    (%rax),%eax
  4065dd:	83 f8 ff             	cmp    $0xffffffff,%eax
  4065e0:	74 38                	je     40661a <_ZN5boost4asio6detail26eventfd_select_interrupter16open_descriptorsEv+0xbe>
  4065e2:	48 8b 45 c8          	mov    -0x38(%rbp),%rax
  4065e6:	8b 00                	mov    (%rax),%eax
  4065e8:	ba 00 08 00 00       	mov    $0x800,%edx
  4065ed:	be 04 00 00 00       	mov    $0x4,%esi
  4065f2:	89 c7                	mov    %eax,%edi
  4065f4:	b8 00 00 00 00       	mov    $0x0,%eax
  4065f9:	e8 62 d0 ff ff       	callq  403660 <fcntl@plt>
  4065fe:	48 8b 45 c8          	mov    -0x38(%rbp),%rax
  406602:	8b 00                	mov    (%rax),%eax
  406604:	ba 01 00 00 00       	mov    $0x1,%edx
  406609:	be 02 00 00 00       	mov    $0x2,%esi
  40660e:	89 c7                	mov    %eax,%edi
  406610:	b8 00 00 00 00       	mov    $0x0,%eax
  406615:	e8 46 d0 ff ff       	callq  403660 <fcntl@plt>
  40661a:	48 8b 45 c8          	mov    -0x38(%rbp),%rax
  40661e:	8b 00                	mov    (%rax),%eax
  406620:	83 f8 ff             	cmp    $0xffffffff,%eax
  406623:	0f 85 d1 00 00 00    	jne    4066fa <_ZN5boost4asio6detail26eventfd_select_interrupter16open_descriptorsEv+0x19e>
  406629:	48 8d 45 e0          	lea    -0x20(%rbp),%rax
  40662d:	48 89 c7             	mov    %rax,%rdi
  406630:	e8 fb d2 ff ff       	callq  403930 <pipe@plt>
  406635:	85 c0                	test   %eax,%eax
  406637:	0f 94 c0             	sete   %al
  40663a:	84 c0                	test   %al,%al
  40663c:	0f 84 87 00 00 00    	je     4066c9 <_ZN5boost4asio6detail26eventfd_select_interrupter16open_descriptorsEv+0x16d>
  406642:	8b 55 e0             	mov    -0x20(%rbp),%edx
  406645:	48 8b 45 c8          	mov    -0x38(%rbp),%rax
  406649:	89 10                	mov    %edx,(%rax)
  40664b:	48 8b 45 c8          	mov    -0x38(%rbp),%rax
  40664f:	8b 00                	mov    (%rax),%eax
  406651:	ba 00 08 00 00       	mov    $0x800,%edx
  406656:	be 04 00 00 00       	mov    $0x4,%esi
  40665b:	89 c7                	mov    %eax,%edi
  40665d:	b8 00 00 00 00       	mov    $0x0,%eax
  406662:	e8 f9 cf ff ff       	callq  403660 <fcntl@plt>
  406667:	48 8b 45 c8          	mov    -0x38(%rbp),%rax
  40666b:	8b 00                	mov    (%rax),%eax
  40666d:	ba 01 00 00 00       	mov    $0x1,%edx
  406672:	be 02 00 00 00       	mov    $0x2,%esi
  406677:	89 c7                	mov    %eax,%edi
  406679:	b8 00 00 00 00       	mov    $0x0,%eax
  40667e:	e8 dd cf ff ff       	callq  403660 <fcntl@plt>
  406683:	8b 55 e4             	mov    -0x1c(%rbp),%edx
  406686:	48 8b 45 c8          	mov    -0x38(%rbp),%rax
  40668a:	89 50 04             	mov    %edx,0x4(%rax)
  40668d:	48 8b 45 c8          	mov    -0x38(%rbp),%rax
  406691:	8b 40 04             	mov    0x4(%rax),%eax
  406694:	ba 00 08 00 00       	mov    $0x800,%edx
  406699:	be 04 00 00 00       	mov    $0x4,%esi
  40669e:	89 c7                	mov    %eax,%edi
  4066a0:	b8 00 00 00 00       	mov    $0x0,%eax
  4066a5:	e8 b6 cf ff ff       	callq  403660 <fcntl@plt>
  4066aa:	48 8b 45 c8          	mov    -0x38(%rbp),%rax
  4066ae:	8b 40 04             	mov    0x4(%rax),%eax
  4066b1:	ba 01 00 00 00       	mov    $0x1,%edx
  4066b6:	be 02 00 00 00       	mov    $0x2,%esi
  4066bb:	89 c7                	mov    %eax,%edi
  4066bd:	b8 00 00 00 00       	mov    $0x0,%eax
  4066c2:	e8 99 cf ff ff       	callq  403660 <fcntl@plt>
  4066c7:	eb 31                	jmp    4066fa <_ZN5boost4asio6detail26eventfd_select_interrupter16open_descriptorsEv+0x19e>
  4066c9:	e8 9b f0 ff ff       	callq  405769 <_ZN5boost4asio5error19get_system_categoryEv>
  4066ce:	48 89 c3             	mov    %rax,%rbx
  4066d1:	e8 ca cd ff ff       	callq  4034a0 <__errno_location@plt>
  4066d6:	8b 08                	mov    (%rax),%ecx
  4066d8:	48 8d 45 d0          	lea    -0x30(%rbp),%rax
  4066dc:	48 89 da             	mov    %rbx,%rdx
  4066df:	89 ce                	mov    %ecx,%esi
  4066e1:	48 89 c7             	mov    %rax,%rdi
  4066e4:	e8 91 e7 ff ff       	callq  404e7a <_ZN5boost6system10error_codeC1EiRKNS0_14error_categoryE>
  4066e9:	48 8d 45 d0          	lea    -0x30(%rbp),%rax
  4066ed:	be be 4e 41 00       	mov    $0x414ebe,%esi
  4066f2:	48 89 c7             	mov    %rax,%rdi
  4066f5:	e8 d6 ea ff ff       	callq  4051d0 <_ZN5boost4asio6detail11throw_errorERKNS_6system10error_codeEPKc>
  4066fa:	90                   	nop
  4066fb:	48 8b 45 e8          	mov    -0x18(%rbp),%rax
  4066ff:	64 48 33 04 25 28 00 	xor    %fs:0x28,%rax
  406706:	00 00 
  406708:	74 05                	je     40670f <_ZN5boost4asio6detail26eventfd_select_interrupter16open_descriptorsEv+0x1b3>
  40670a:	e8 21 d1 ff ff       	callq  403830 <__stack_chk_fail@plt>
  40670f:	48 83 c4 38          	add    $0x38,%rsp
  406713:	5b                   	pop    %rbx
  406714:	5d                   	pop    %rbp
  406715:	c3                   	retq   

0000000000406716 <_ZN5boost4asio6detail26eventfd_select_interrupterD1Ev>:
  406716:	55                   	push   %rbp
  406717:	48 89 e5             	mov    %rsp,%rbp
  40671a:	48 83 ec 10          	sub    $0x10,%rsp
  40671e:	48 89 7d f8          	mov    %rdi,-0x8(%rbp)
  406722:	48 8b 45 f8          	mov    -0x8(%rbp),%rax
  406726:	48 89 c7             	mov    %rax,%rdi
  406729:	e8 04 00 00 00       	callq  406732 <_ZN5boost4asio6detail26eventfd_select_interrupter17close_descriptorsEv>
  40672e:	90                   	nop
  40672f:	c9                   	leaveq 
  406730:	c3                   	retq   
  406731:	90                   	nop

0000000000406732 <_ZN5boost4asio6detail26eventfd_select_interrupter17close_descriptorsEv>:
  406732:	55                   	push   %rbp
  406733:	48 89 e5             	mov    %rsp,%rbp
  406736:	48 83 ec 10          	sub    $0x10,%rsp
  40673a:	48 89 7d f8          	mov    %rdi,-0x8(%rbp)
  40673e:	48 8b 45 f8          	mov    -0x8(%rbp),%rax
  406742:	8b 40 04             	mov    0x4(%rax),%eax
  406745:	83 f8 ff             	cmp    $0xffffffff,%eax
  406748:	74 1f                	je     406769 <_ZN5boost4asio6detail26eventfd_select_interrupter17close_descriptorsEv+0x37>
  40674a:	48 8b 45 f8          	mov    -0x8(%rbp),%rax
  40674e:	8b 50 04             	mov    0x4(%rax),%edx
  406751:	48 8b 45 f8          	mov    -0x8(%rbp),%rax
  406755:	8b 00                	mov    (%rax),%eax
  406757:	39 c2                	cmp    %eax,%edx
  406759:	74 0e                	je     406769 <_ZN5boost4asio6detail26eventfd_select_interrupter17close_descriptorsEv+0x37>
  40675b:	48 8b 45 f8          	mov    -0x8(%rbp),%rax
  40675f:	8b 40 04             	mov    0x4(%rax),%eax
  406762:	89 c7                	mov    %eax,%edi
  406764:	e8 c7 d4 ff ff       	callq  403c30 <close@plt>
  406769:	48 8b 45 f8          	mov    -0x8(%rbp),%rax
  40676d:	8b 00                	mov    (%rax),%eax
  40676f:	83 f8 ff             	cmp    $0xffffffff,%eax
  406772:	74 0d                	je     406781 <_ZN5boost4asio6detail26eventfd_select_interrupter17close_descriptorsEv+0x4f>
  406774:	48 8b 45 f8          	mov    -0x8(%rbp),%rax
  406778:	8b 00                	mov    (%rax),%eax
  40677a:	89 c7                	mov    %eax,%edi
  40677c:	e8 af d4 ff ff       	callq  403c30 <close@plt>
  406781:	90                   	nop
  406782:	c9                   	leaveq 
  406783:	c3                   	retq   

0000000000406784 <_ZN5boost4asio6detail26eventfd_select_interrupter8recreateEv>:
  406784:	55                   	push   %rbp
  406785:	48 89 e5             	mov    %rsp,%rbp
  406788:	48 83 ec 10          	sub    $0x10,%rsp
  40678c:	48 89 7d f8          	mov    %rdi,-0x8(%rbp)
  406790:	48 8b 45 f8          	mov    -0x8(%rbp),%rax
  406794:	48 89 c7             	mov    %rax,%rdi
  406797:	e8 96 ff ff ff       	callq  406732 <_ZN5boost4asio6detail26eventfd_select_interrupter17close_descriptorsEv>
  40679c:	48 8b 45 f8          	mov    -0x8(%rbp),%rax
  4067a0:	c7 40 04 ff ff ff ff 	movl   $0xffffffff,0x4(%rax)
  4067a7:	48 8b 45 f8          	mov    -0x8(%rbp),%rax
  4067ab:	c7 00 ff ff ff ff    	movl   $0xffffffff,(%rax)
  4067b1:	48 8b 45 f8          	mov    -0x8(%rbp),%rax
  4067b5:	48 89 c7             	mov    %rax,%rdi
  4067b8:	e8 9f fd ff ff       	callq  40655c <_ZN5boost4asio6detail26eventfd_select_interrupter16open_descriptorsEv>
  4067bd:	90                   	nop
  4067be:	c9                   	leaveq 
  4067bf:	c3                   	retq   

00000000004067c0 <_ZN5boost4asio6detail26eventfd_select_interrupter9interruptEv>:
  4067c0:	55                   	push   %rbp
  4067c1:	48 89 e5             	mov    %rsp,%rbp
  4067c4:	48 83 ec 30          	sub    $0x30,%rsp
  4067c8:	48 89 7d d8          	mov    %rdi,-0x28(%rbp)
  4067cc:	64 48 8b 04 25 28 00 	mov    %fs:0x28,%rax
  4067d3:	00 00 
  4067d5:	48 89 45 f8          	mov    %rax,-0x8(%rbp)
  4067d9:	31 c0                	xor    %eax,%eax
  4067db:	48 c7 45 f0 01 00 00 	movq   $0x1,-0x10(%rbp)
  4067e2:	00 
  4067e3:	48 8b 45 d8          	mov    -0x28(%rbp),%rax
  4067e7:	8b 40 04             	mov    0x4(%rax),%eax
  4067ea:	48 8d 4d f0          	lea    -0x10(%rbp),%rcx
  4067ee:	ba 08 00 00 00       	mov    $0x8,%edx
  4067f3:	48 89 ce             	mov    %rcx,%rsi
  4067f6:	89 c7                	mov    %eax,%edi
  4067f8:	e8 93 cd ff ff       	callq  403590 <write@plt>
  4067fd:	89 45 ec             	mov    %eax,-0x14(%rbp)
  406800:	90                   	nop
  406801:	48 8b 45 f8          	mov    -0x8(%rbp),%rax
  406805:	64 48 33 04 25 28 00 	xor    %fs:0x28,%rax
  40680c:	00 00 
  40680e:	74 05                	je     406815 <_ZN5boost4asio6detail26eventfd_select_interrupter9interruptEv+0x55>
  406810:	e8 1b d0 ff ff       	callq  403830 <__stack_chk_fail@plt>
  406815:	c9                   	leaveq 
  406816:	c3                   	retq   
  406817:	90                   	nop

0000000000406818 <_ZN5boost4asio6detail15timer_queue_setC1Ev>:
  406818:	55                   	push   %rbp
  406819:	48 89 e5             	mov    %rsp,%rbp
  40681c:	48 89 7d f8          	mov    %rdi,-0x8(%rbp)
  406820:	48 8b 45 f8          	mov    -0x8(%rbp),%rax
  406824:	48 c7 00 00 00 00 00 	movq   $0x0,(%rax)
  40682b:	90                   	nop
  40682c:	5d                   	pop    %rbp
  40682d:	c3                   	retq   

000000000040682e <_ZNK5boost4asio6detail15timer_queue_set18wait_duration_msecEl>:
  40682e:	55                   	push   %rbp
  40682f:	48 89 e5             	mov    %rsp,%rbp
  406832:	48 83 ec 20          	sub    $0x20,%rsp
  406836:	48 89 7d e8          	mov    %rdi,-0x18(%rbp)
  40683a:	48 89 75 e0          	mov    %rsi,-0x20(%rbp)
  40683e:	48 8b 45 e0          	mov    -0x20(%rbp),%rax
  406842:	48 89 45 f0          	mov    %rax,-0x10(%rbp)
  406846:	48 8b 45 e8          	mov    -0x18(%rbp),%rax
  40684a:	48 8b 00             	mov    (%rax),%rax
  40684d:	48 89 45 f8          	mov    %rax,-0x8(%rbp)
  406851:	48 83 7d f8 00       	cmpq   $0x0,-0x8(%rbp)
  406856:	74 30                	je     406888 <_ZNK5boost4asio6detail15timer_queue_set18wait_duration_msecEl+0x5a>
  406858:	48 8b 45 f8          	mov    -0x8(%rbp),%rax
  40685c:	48 8b 00             	mov    (%rax),%rax
  40685f:	48 83 c0 18          	add    $0x18,%rax
  406863:	48 8b 00             	mov    (%rax),%rax
  406866:	48 8b 4d f0          	mov    -0x10(%rbp),%rcx
  40686a:	48 8b 55 f8          	mov    -0x8(%rbp),%rdx
  40686e:	48 89 ce             	mov    %rcx,%rsi
  406871:	48 89 d7             	mov    %rdx,%rdi
  406874:	ff d0                	callq  *%rax
  406876:	48 89 45 f0          	mov    %rax,-0x10(%rbp)
  40687a:	48 8b 45 f8          	mov    -0x8(%rbp),%rax
  40687e:	48 8b 40 08          	mov    0x8(%rax),%rax
  406882:	48 89 45 f8          	mov    %rax,-0x8(%rbp)
  406886:	eb c9                	jmp    406851 <_ZNK5boost4asio6detail15timer_queue_set18wait_duration_msecEl+0x23>
  406888:	48 8b 45 f0          	mov    -0x10(%rbp),%rax
  40688c:	c9                   	leaveq 
  40688d:	c3                   	retq   

000000000040688e <_ZNK5boost4asio6detail15timer_queue_set18wait_duration_usecEl>:
  40688e:	55                   	push   %rbp
  40688f:	48 89 e5             	mov    %rsp,%rbp
  406892:	48 83 ec 20          	sub    $0x20,%rsp
  406896:	48 89 7d e8          	mov    %rdi,-0x18(%rbp)
  40689a:	48 89 75 e0          	mov    %rsi,-0x20(%rbp)
  40689e:	48 8b 45 e0          	mov    -0x20(%rbp),%rax
  4068a2:	48 89 45 f0          	mov    %rax,-0x10(%rbp)
  4068a6:	48 8b 45 e8          	mov    -0x18(%rbp),%rax
  4068aa:	48 8b 00             	mov    (%rax),%rax
  4068ad:	48 89 45 f8          	mov    %rax,-0x8(%rbp)
  4068b1:	48 83 7d f8 00       	cmpq   $0x0,-0x8(%rbp)
  4068b6:	74 30                	je     4068e8 <_ZNK5boost4asio6detail15timer_queue_set18wait_duration_usecEl+0x5a>
  4068b8:	48 8b 45 f8          	mov    -0x8(%rbp),%rax
  4068bc:	48 8b 00             	mov    (%rax),%rax
  4068bf:	48 83 c0 20          	add    $0x20,%rax
  4068c3:	48 8b 00             	mov    (%rax),%rax
  4068c6:	48 8b 4d f0          	mov    -0x10(%rbp),%rcx
  4068ca:	48 8b 55 f8          	mov    -0x8(%rbp),%rdx
  4068ce:	48 89 ce             	mov    %rcx,%rsi
  4068d1:	48 89 d7             	mov    %rdx,%rdi
  4068d4:	ff d0                	callq  *%rax
  4068d6:	48 89 45 f0          	mov    %rax,-0x10(%rbp)
  4068da:	48 8b 45 f8          	mov    -0x8(%rbp),%rax
  4068de:	48 8b 40 08          	mov    0x8(%rax),%rax
  4068e2:	48 89 45 f8          	mov    %rax,-0x8(%rbp)
  4068e6:	eb c9                	jmp    4068b1 <_ZNK5boost4asio6detail15timer_queue_set18wait_duration_usecEl+0x23>
  4068e8:	48 8b 45 f0          	mov    -0x10(%rbp),%rax
  4068ec:	c9                   	leaveq 
  4068ed:	c3                   	retq   

00000000004068ee <_ZN5boost4asio6detail15timer_queue_set16get_ready_timersERNS1_8op_queueINS1_25task_io_service_operationEEE>:
  4068ee:	55                   	push   %rbp
  4068ef:	48 89 e5             	mov    %rsp,%rbp
  4068f2:	48 83 ec 20          	sub    $0x20,%rsp
  4068f6:	48 89 7d e8          	mov    %rdi,-0x18(%rbp)
  4068fa:	48 89 75 e0          	mov    %rsi,-0x20(%rbp)
  4068fe:	48 8b 45 e8          	mov    -0x18(%rbp),%rax
  406902:	48 8b 00             	mov    (%rax),%rax
  406905:	48 89 45 f8          	mov    %rax,-0x8(%rbp)
  406909:	48 83 7d f8 00       	cmpq   $0x0,-0x8(%rbp)
  40690e:	74 2c                	je     40693c <_ZN5boost4asio6detail15timer_queue_set16get_ready_timersERNS1_8op_queueINS1_25task_io_service_operationEEE+0x4e>
  406910:	48 8b 45 f8          	mov    -0x8(%rbp),%rax
  406914:	48 8b 00             	mov    (%rax),%rax
  406917:	48 83 c0 28          	add    $0x28,%rax
  40691b:	48 8b 00             	mov    (%rax),%rax
  40691e:	48 8b 4d e0          	mov    -0x20(%rbp),%rcx
  406922:	48 8b 55 f8          	mov    -0x8(%rbp),%rdx
  406926:	48 89 ce             	mov    %rcx,%rsi
  406929:	48 89 d7             	mov    %rdx,%rdi
  40692c:	ff d0                	callq  *%rax
  40692e:	48 8b 45 f8          	mov    -0x8(%rbp),%rax
  406932:	48 8b 40 08          	mov    0x8(%rax),%rax
  406936:	48 89 45 f8          	mov    %rax,-0x8(%rbp)
  40693a:	eb cd                	jmp    406909 <_ZN5boost4asio6detail15timer_queue_set16get_ready_timersERNS1_8op_queueINS1_25task_io_service_operationEEE+0x1b>
  40693c:	90                   	nop
  40693d:	c9                   	leaveq 
  40693e:	c3                   	retq   
  40693f:	90                   	nop

0000000000406940 <_ZN5boost4asio6detail15timer_queue_set14get_all_timersERNS1_8op_queueINS1_25task_io_service_operationEEE>:
  406940:	55                   	push   %rbp
  406941:	48 89 e5             	mov    %rsp,%rbp
  406944:	48 83 ec 20          	sub    $0x20,%rsp
  406948:	48 89 7d e8          	mov    %rdi,-0x18(%rbp)
  40694c:	48 89 75 e0          	mov    %rsi,-0x20(%rbp)
  406950:	48 8b 45 e8          	mov    -0x18(%rbp),%rax
  406954:	48 8b 00             	mov    (%rax),%rax
  406957:	48 89 45 f8          	mov    %rax,-0x8(%rbp)
  40695b:	48 83 7d f8 00       	cmpq   $0x0,-0x8(%rbp)
  406960:	74 2c                	je     40698e <_ZN5boost4asio6detail15timer_queue_set14get_all_timersERNS1_8op_queueINS1_25task_io_service_operationEEE+0x4e>
  406962:	48 8b 45 f8          	mov    -0x8(%rbp),%rax
  406966:	48 8b 00             	mov    (%rax),%rax
  406969:	48 83 c0 30          	add    $0x30,%rax
  40696d:	48 8b 00             	mov    (%rax),%rax
  406970:	48 8b 4d e0          	mov    -0x20(%rbp),%rcx
  406974:	48 8b 55 f8          	mov    -0x8(%rbp),%rdx
  406978:	48 89 ce             	mov    %rcx,%rsi
  40697b:	48 89 d7             	mov    %rdx,%rdi
  40697e:	ff d0                	callq  *%rax
  406980:	48 8b 45 f8          	mov    -0x8(%rbp),%rax
  406984:	48 8b 40 08          	mov    0x8(%rax),%rax
  406988:	48 89 45 f8          	mov    %rax,-0x8(%rbp)
  40698c:	eb cd                	jmp    40695b <_ZN5boost4asio6detail15timer_queue_set14get_all_timersERNS1_8op_queueINS1_25task_io_service_operationEEE+0x1b>
  40698e:	90                   	nop
  40698f:	c9                   	leaveq 
  406990:	c3                   	retq   
  406991:	90                   	nop

0000000000406992 <_ZN5boost4asio6detail13epoll_reactor16descriptor_state16set_ready_eventsEj>:
  406992:	55                   	push   %rbp
  406993:	48 89 e5             	mov    %rsp,%rbp
  406996:	48 89 7d f8          	mov    %rdi,-0x8(%rbp)
  40699a:	89 75 f4             	mov    %esi,-0xc(%rbp)
  40699d:	48 8b 45 f8          	mov    -0x8(%rbp),%rax
  4069a1:	8b 55 f4             	mov    -0xc(%rbp),%edx
  4069a4:	89 50 10             	mov    %edx,0x10(%rax)
  4069a7:	90                   	nop
  4069a8:	5d                   	pop    %rbp
  4069a9:	c3                   	retq   

00000000004069aa <_ZN5boost4asio6detail12service_baseINS1_13epoll_reactorEED1Ev>:
  4069aa:	55                   	push   %rbp
  4069ab:	48 89 e5             	mov    %rsp,%rbp
  4069ae:	48 83 ec 10          	sub    $0x10,%rsp
  4069b2:	48 89 7d f8          	mov    %rdi,-0x8(%rbp)
  4069b6:	ba d8 5a 41 00       	mov    $0x415ad8,%edx
  4069bb:	48 8b 45 f8          	mov    -0x8(%rbp),%rax
  4069bf:	48 89 10             	mov    %rdx,(%rax)
  4069c2:	48 8b 45 f8          	mov    -0x8(%rbp),%rax
  4069c6:	48 89 c7             	mov    %rax,%rdi
  4069c9:	e8 c8 22 00 00       	callq  408c96 <_ZN5boost4asio10io_service7serviceD1Ev>
  4069ce:	b8 00 00 00 00       	mov    $0x0,%eax
  4069d3:	85 c0                	test   %eax,%eax
  4069d5:	74 0c                	je     4069e3 <_ZN5boost4asio6detail12service_baseINS1_13epoll_reactorEED1Ev+0x39>
  4069d7:	48 8b 45 f8          	mov    -0x8(%rbp),%rax
  4069db:	48 89 c7             	mov    %rax,%rdi
  4069de:	e8 7d cd ff ff       	callq  403760 <_ZdlPv@plt>
  4069e3:	c9                   	leaveq 
  4069e4:	c3                   	retq   
  4069e5:	90                   	nop

00000000004069e6 <_ZN5boost4asio6detail12service_baseINS1_13epoll_reactorEED0Ev>:
  4069e6:	55                   	push   %rbp
  4069e7:	48 89 e5             	mov    %rsp,%rbp
  4069ea:	48 83 ec 10          	sub    $0x10,%rsp
  4069ee:	48 89 7d f8          	mov    %rdi,-0x8(%rbp)
  4069f2:	48 8b 45 f8          	mov    -0x8(%rbp),%rax
  4069f6:	48 89 c7             	mov    %rax,%rdi
  4069f9:	e8 ac ff ff ff       	callq  4069aa <_ZN5boost4asio6detail12service_baseINS1_13epoll_reactorEED1Ev>
  4069fe:	48 8b 45 f8          	mov    -0x8(%rbp),%rax
  406a02:	48 89 c7             	mov    %rax,%rdi
  406a05:	e8 56 cd ff ff       	callq  403760 <_ZdlPv@plt>
  406a0a:	c9                   	leaveq 
  406a0b:	c3                   	retq   

0000000000406a0c <_ZN5boost4asio6detail13epoll_reactorC1ERNS0_10io_serviceE>:
  406a0c:	55                   	push   %rbp
  406a0d:	48 89 e5             	mov    %rsp,%rbp
  406a10:	53                   	push   %rbx
  406a11:	48 83 ec 38          	sub    $0x38,%rsp
  406a15:	48 89 7d c8          	mov    %rdi,-0x38(%rbp)
  406a19:	48 89 75 c0          	mov    %rsi,-0x40(%rbp)
  406a1d:	64 48 8b 04 25 28 00 	mov    %fs:0x28,%rax
  406a24:	00 00 
  406a26:	48 89 45 e8          	mov    %rax,-0x18(%rbp)
  406a2a:	31 c0                	xor    %eax,%eax
  406a2c:	48 8b 45 c8          	mov    -0x38(%rbp),%rax
  406a30:	48 8b 55 c0          	mov    -0x40(%rbp),%rdx
  406a34:	48 89 d6             	mov    %rdx,%rsi
  406a37:	48 89 c7             	mov    %rax,%rdi
  406a3a:	e8 73 4e 00 00       	callq  40b8b2 <_ZN5boost4asio6detail12service_baseINS1_13epoll_reactorEEC1ERNS0_10io_serviceE>
  406a3f:	ba a8 5a 41 00       	mov    $0x415aa8,%edx
  406a44:	48 8b 45 c8          	mov    -0x38(%rbp),%rax
  406a48:	48 89 10             	mov    %rdx,(%rax)
  406a4b:	48 8b 45 c0          	mov    -0x40(%rbp),%rax
  406a4f:	48 89 c7             	mov    %rax,%rdi
  406a52:	e8 0f f8 ff ff       	callq  406266 <_ZN5boost4asio11use_serviceINS0_6detail15task_io_serviceEEERT_RNS0_10io_serviceE>
  406a57:	48 89 c2             	mov    %rax,%rdx
  406a5a:	48 8b 45 c8          	mov    -0x38(%rbp),%rax
  406a5e:	48 89 50 28          	mov    %rdx,0x28(%rax)
  406a62:	48 8b 45 c8          	mov    -0x38(%rbp),%rax
  406a66:	48 83 c0 30          	add    $0x30,%rax
  406a6a:	48 89 c7             	mov    %rax,%rdi
  406a6d:	e8 5e f4 ff ff       	callq  405ed0 <_ZN5boost4asio6detail11posix_mutexC1Ev>
  406a72:	48 8b 45 c8          	mov    -0x38(%rbp),%rax
  406a76:	48 83 c0 58          	add    $0x58,%rax
  406a7a:	48 89 c7             	mov    %rax,%rdi
  406a7d:	e8 be fa ff ff       	callq  406540 <_ZN5boost4asio6detail26eventfd_select_interrupterC1Ev>
  406a82:	e8 67 0c 00 00       	callq  4076ee <_ZN5boost4asio6detail13epoll_reactor15do_epoll_createEv>
  406a87:	89 c2                	mov    %eax,%edx
  406a89:	48 8b 45 c8          	mov    -0x38(%rbp),%rax
  406a8d:	89 50 60             	mov    %edx,0x60(%rax)
  406a90:	e8 1d 0d 00 00       	callq  4077b2 <_ZN5boost4asio6detail13epoll_reactor17do_timerfd_createEv>
  406a95:	89 c2                	mov    %eax,%edx
  406a97:	48 8b 45 c8          	mov    -0x38(%rbp),%rax
  406a9b:	89 50 64             	mov    %edx,0x64(%rax)
  406a9e:	48 8b 45 c8          	mov    -0x38(%rbp),%rax
  406aa2:	48 83 c0 68          	add    $0x68,%rax
  406aa6:	48 89 c7             	mov    %rax,%rdi
  406aa9:	e8 6a fd ff ff       	callq  406818 <_ZN5boost4asio6detail15timer_queue_setC1Ev>
  406aae:	48 8b 45 c8          	mov    -0x38(%rbp),%rax
  406ab2:	c6 40 70 00          	movb   $0x0,0x70(%rax)
  406ab6:	48 8b 45 c8          	mov    -0x38(%rbp),%rax
  406aba:	48 83 c0 78          	add    $0x78,%rax
  406abe:	48 89 c7             	mov    %rax,%rdi
  406ac1:	e8 0a f4 ff ff       	callq  405ed0 <_ZN5boost4asio6detail11posix_mutexC1Ev>
  406ac6:	48 8b 45 c8          	mov    -0x38(%rbp),%rax
  406aca:	48 05 a0 00 00 00    	add    $0xa0,%rax
  406ad0:	48 89 c7             	mov    %rax,%rdi
  406ad3:	e8 0c 4e 00 00       	callq  40b8e4 <_ZN5boost4asio6detail11object_poolINS1_13epoll_reactor16descriptor_stateEEC1Ev>
  406ad8:	c7 45 d0 00 00 00 00 	movl   $0x0,-0x30(%rbp)
  406adf:	48 c7 45 d4 00 00 00 	movq   $0x0,-0x2c(%rbp)
  406ae6:	00 
  406ae7:	c7 45 d0 09 00 00 80 	movl   $0x80000009,-0x30(%rbp)
  406aee:	48 8b 45 c8          	mov    -0x38(%rbp),%rax
  406af2:	48 83 c0 58          	add    $0x58,%rax
  406af6:	48 89 45 d4          	mov    %rax,-0x2c(%rbp)
  406afa:	48 8b 45 c8          	mov    -0x38(%rbp),%rax
  406afe:	48 83 c0 58          	add    $0x58,%rax
  406b02:	48 89 c7             	mov    %rax,%rdi
  406b05:	e8 26 fa ff ff       	callq  406530 <_ZNK5boost4asio6detail26eventfd_select_interrupter15read_descriptorEv>
  406b0a:	89 c6                	mov    %eax,%esi
  406b0c:	48 8b 45 c8          	mov    -0x38(%rbp),%rax
  406b10:	8b 40 60             	mov    0x60(%rax),%eax
  406b13:	48 8d 55 d0          	lea    -0x30(%rbp),%rdx
  406b17:	48 89 d1             	mov    %rdx,%rcx
  406b1a:	89 f2                	mov    %esi,%edx
  406b1c:	be 01 00 00 00       	mov    $0x1,%esi
  406b21:	89 c7                	mov    %eax,%edi
  406b23:	e8 38 ce ff ff       	callq  403960 <epoll_ctl@plt>
  406b28:	48 8b 45 c8          	mov    -0x38(%rbp),%rax
  406b2c:	48 83 c0 58          	add    $0x58,%rax
  406b30:	48 89 c7             	mov    %rax,%rdi
  406b33:	e8 88 fc ff ff       	callq  4067c0 <_ZN5boost4asio6detail26eventfd_select_interrupter9interruptEv>
  406b38:	48 8b 45 c8          	mov    -0x38(%rbp),%rax
  406b3c:	8b 40 64             	mov    0x64(%rax),%eax
  406b3f:	83 f8 ff             	cmp    $0xffffffff,%eax
  406b42:	0f 84 9e 00 00 00    	je     406be6 <_ZN5boost4asio6detail13epoll_reactorC1ERNS0_10io_serviceE+0x1da>
  406b48:	c7 45 d0 09 00 00 00 	movl   $0x9,-0x30(%rbp)
  406b4f:	48 8b 45 c8          	mov    -0x38(%rbp),%rax
  406b53:	48 83 c0 64          	add    $0x64,%rax
  406b57:	48 89 45 d4          	mov    %rax,-0x2c(%rbp)
  406b5b:	48 8b 45 c8          	mov    -0x38(%rbp),%rax
  406b5f:	8b 50 64             	mov    0x64(%rax),%edx
  406b62:	48 8b 45 c8          	mov    -0x38(%rbp),%rax
  406b66:	8b 40 60             	mov    0x60(%rax),%eax
  406b69:	48 8d 4d d0          	lea    -0x30(%rbp),%rcx
  406b6d:	be 01 00 00 00       	mov    $0x1,%esi
  406b72:	89 c7                	mov    %eax,%edi
  406b74:	e8 e7 cd ff ff       	callq  403960 <epoll_ctl@plt>
  406b79:	eb 6b                	jmp    406be6 <_ZN5boost4asio6detail13epoll_reactorC1ERNS0_10io_serviceE+0x1da>
  406b7b:	48 89 c3             	mov    %rax,%rbx
  406b7e:	48 8b 45 c8          	mov    -0x38(%rbp),%rax
  406b82:	48 05 a0 00 00 00    	add    $0xa0,%rax
  406b88:	48 89 c7             	mov    %rax,%rdi
  406b8b:	e8 86 4d 00 00       	callq  40b916 <_ZN5boost4asio6detail11object_poolINS1_13epoll_reactor16descriptor_stateEED1Ev>
  406b90:	48 8b 45 c8          	mov    -0x38(%rbp),%rax
  406b94:	48 83 c0 78          	add    $0x78,%rax
  406b98:	48 89 c7             	mov    %rax,%rdi
  406b9b:	e8 a0 e5 ff ff       	callq  405140 <_ZN5boost4asio6detail11posix_mutexD1Ev>
  406ba0:	eb 03                	jmp    406ba5 <_ZN5boost4asio6detail13epoll_reactorC1ERNS0_10io_serviceE+0x199>
  406ba2:	48 89 c3             	mov    %rax,%rbx
  406ba5:	48 8b 45 c8          	mov    -0x38(%rbp),%rax
  406ba9:	48 83 c0 58          	add    $0x58,%rax
  406bad:	48 89 c7             	mov    %rax,%rdi
  406bb0:	e8 61 fb ff ff       	callq  406716 <_ZN5boost4asio6detail26eventfd_select_interrupterD1Ev>
  406bb5:	eb 03                	jmp    406bba <_ZN5boost4asio6detail13epoll_reactorC1ERNS0_10io_serviceE+0x1ae>
  406bb7:	48 89 c3             	mov    %rax,%rbx
  406bba:	48 8b 45 c8          	mov    -0x38(%rbp),%rax
  406bbe:	48 83 c0 30          	add    $0x30,%rax
  406bc2:	48 89 c7             	mov    %rax,%rdi
  406bc5:	e8 76 e5 ff ff       	callq  405140 <_ZN5boost4asio6detail11posix_mutexD1Ev>
  406bca:	eb 03                	jmp    406bcf <_ZN5boost4asio6detail13epoll_reactorC1ERNS0_10io_serviceE+0x1c3>
  406bcc:	48 89 c3             	mov    %rax,%rbx
  406bcf:	48 8b 45 c8          	mov    -0x38(%rbp),%rax
  406bd3:	48 89 c7             	mov    %rax,%rdi
  406bd6:	e8 cf fd ff ff       	callq  4069aa <_ZN5boost4asio6detail12service_baseINS1_13epoll_reactorEED1Ev>
  406bdb:	48 89 d8             	mov    %rbx,%rax
  406bde:	48 89 c7             	mov    %rax,%rdi
  406be1:	e8 6a cf ff ff       	callq  403b50 <_Unwind_Resume@plt>
  406be6:	90                   	nop
  406be7:	48 8b 45 e8          	mov    -0x18(%rbp),%rax
  406beb:	64 48 33 04 25 28 00 	xor    %fs:0x28,%rax
  406bf2:	00 00 
  406bf4:	74 05                	je     406bfb <_ZN5boost4asio6detail13epoll_reactorC1ERNS0_10io_serviceE+0x1ef>
  406bf6:	e8 35 cc ff ff       	callq  403830 <__stack_chk_fail@plt>
  406bfb:	48 83 c4 38          	add    $0x38,%rsp
  406bff:	5b                   	pop    %rbx
  406c00:	5d                   	pop    %rbp
  406c01:	c3                   	retq   

0000000000406c02 <_ZN5boost4asio6detail13epoll_reactorD1Ev>:
  406c02:	55                   	push   %rbp
  406c03:	48 89 e5             	mov    %rsp,%rbp
  406c06:	48 83 ec 10          	sub    $0x10,%rsp
  406c0a:	48 89 7d f8          	mov    %rdi,-0x8(%rbp)
  406c0e:	ba a8 5a 41 00       	mov    $0x415aa8,%edx
  406c13:	48 8b 45 f8          	mov    -0x8(%rbp),%rax
  406c17:	48 89 10             	mov    %rdx,(%rax)
  406c1a:	48 8b 45 f8          	mov    -0x8(%rbp),%rax
  406c1e:	8b 40 60             	mov    0x60(%rax),%eax
  406c21:	83 f8 ff             	cmp    $0xffffffff,%eax
  406c24:	74 0e                	je     406c34 <_ZN5boost4asio6detail13epoll_reactorD1Ev+0x32>
  406c26:	48 8b 45 f8          	mov    -0x8(%rbp),%rax
  406c2a:	8b 40 60             	mov    0x60(%rax),%eax
  406c2d:	89 c7                	mov    %eax,%edi
  406c2f:	e8 fc cf ff ff       	callq  403c30 <close@plt>
  406c34:	48 8b 45 f8          	mov    -0x8(%rbp),%rax
  406c38:	8b 40 64             	mov    0x64(%rax),%eax
  406c3b:	83 f8 ff             	cmp    $0xffffffff,%eax
  406c3e:	74 0e                	je     406c4e <_ZN5boost4asio6detail13epoll_reactorD1Ev+0x4c>
  406c40:	48 8b 45 f8          	mov    -0x8(%rbp),%rax
  406c44:	8b 40 64             	mov    0x64(%rax),%eax
  406c47:	89 c7                	mov    %eax,%edi
  406c49:	e8 e2 cf ff ff       	callq  403c30 <close@plt>
  406c4e:	48 8b 45 f8          	mov    -0x8(%rbp),%rax
  406c52:	48 05 a0 00 00 00    	add    $0xa0,%rax
  406c58:	48 89 c7             	mov    %rax,%rdi
  406c5b:	e8 b6 4c 00 00       	callq  40b916 <_ZN5boost4asio6detail11object_poolINS1_13epoll_reactor16descriptor_stateEED1Ev>
  406c60:	48 8b 45 f8          	mov    -0x8(%rbp),%rax
  406c64:	48 83 c0 78          	add    $0x78,%rax
  406c68:	48 89 c7             	mov    %rax,%rdi
  406c6b:	e8 d0 e4 ff ff       	callq  405140 <_ZN5boost4asio6detail11posix_mutexD1Ev>
  406c70:	48 8b 45 f8          	mov    -0x8(%rbp),%rax
  406c74:	48 83 c0 58          	add    $0x58,%rax
  406c78:	48 89 c7             	mov    %rax,%rdi
  406c7b:	e8 96 fa ff ff       	callq  406716 <_ZN5boost4asio6detail26eventfd_select_interrupterD1Ev>
  406c80:	48 8b 45 f8          	mov    -0x8(%rbp),%rax
  406c84:	48 83 c0 30          	add    $0x30,%rax
  406c88:	48 89 c7             	mov    %rax,%rdi
  406c8b:	e8 b0 e4 ff ff       	callq  405140 <_ZN5boost4asio6detail11posix_mutexD1Ev>
  406c90:	48 8b 45 f8          	mov    -0x8(%rbp),%rax
  406c94:	48 89 c7             	mov    %rax,%rdi
  406c97:	e8 0e fd ff ff       	callq  4069aa <_ZN5boost4asio6detail12service_baseINS1_13epoll_reactorEED1Ev>
  406c9c:	b8 00 00 00 00       	mov    $0x0,%eax
  406ca1:	85 c0                	test   %eax,%eax
  406ca3:	74 0c                	je     406cb1 <_ZN5boost4asio6detail13epoll_reactorD1Ev+0xaf>
  406ca5:	48 8b 45 f8          	mov    -0x8(%rbp),%rax
  406ca9:	48 89 c7             	mov    %rax,%rdi
  406cac:	e8 af ca ff ff       	callq  403760 <_ZdlPv@plt>
  406cb1:	c9                   	leaveq 
  406cb2:	c3                   	retq   
  406cb3:	90                   	nop

0000000000406cb4 <_ZN5boost4asio6detail13epoll_reactorD0Ev>:
  406cb4:	55                   	push   %rbp
  406cb5:	48 89 e5             	mov    %rsp,%rbp
  406cb8:	48 83 ec 10          	sub    $0x10,%rsp
  406cbc:	48 89 7d f8          	mov    %rdi,-0x8(%rbp)
  406cc0:	48 8b 45 f8          	mov    -0x8(%rbp),%rax
  406cc4:	48 89 c7             	mov    %rax,%rdi
  406cc7:	e8 36 ff ff ff       	callq  406c02 <_ZN5boost4asio6detail13epoll_reactorD1Ev>
  406ccc:	48 8b 45 f8          	mov    -0x8(%rbp),%rax
  406cd0:	48 89 c7             	mov    %rax,%rdi
  406cd3:	e8 88 ca ff ff       	callq  403760 <_ZdlPv@plt>
  406cd8:	c9                   	leaveq 
  406cd9:	c3                   	retq   

0000000000406cda <_ZN5boost4asio6detail13epoll_reactor16shutdown_serviceEv>:
  406cda:	55                   	push   %rbp
  406cdb:	48 89 e5             	mov    %rsp,%rbp
  406cde:	53                   	push   %rbx
  406cdf:	48 83 ec 58          	sub    $0x58,%rsp
  406ce3:	48 89 7d a8          	mov    %rdi,-0x58(%rbp)
  406ce7:	64 48 8b 04 25 28 00 	mov    %fs:0x28,%rax
  406cee:	00 00 
  406cf0:	48 89 45 e8          	mov    %rax,-0x18(%rbp)
  406cf4:	31 c0                	xor    %eax,%eax
  406cf6:	48 8b 45 a8          	mov    -0x58(%rbp),%rax
  406cfa:	48 8d 50 30          	lea    0x30(%rax),%rdx
  406cfe:	48 8d 45 c0          	lea    -0x40(%rbp),%rax
  406d02:	48 89 d6             	mov    %rdx,%rsi
  406d05:	48 89 c7             	mov    %rax,%rdi
  406d08:	e8 15 4a 00 00       	callq  40b722 <_ZN5boost4asio6detail11scoped_lockINS1_11posix_mutexEEC1ERS3_>
  406d0d:	48 8b 45 a8          	mov    -0x58(%rbp),%rax
  406d11:	c6 40 70 01          	movb   $0x1,0x70(%rax)
  406d15:	48 8d 45 c0          	lea    -0x40(%rbp),%rax
  406d19:	48 89 c7             	mov    %rax,%rdi
  406d1c:	e8 79 4a 00 00       	callq  40b79a <_ZN5boost4asio6detail11scoped_lockINS1_11posix_mutexEE6unlockEv>
  406d21:	48 8d 45 d0          	lea    -0x30(%rbp),%rax
  406d25:	48 89 c7             	mov    %rax,%rdi
  406d28:	e8 31 4c 00 00       	callq  40b95e <_ZN5boost4asio6detail8op_queueINS1_25task_io_service_operationEEC1Ev>
  406d2d:	48 8b 45 a8          	mov    -0x58(%rbp),%rax
  406d31:	48 05 a0 00 00 00    	add    $0xa0,%rax
  406d37:	48 89 c7             	mov    %rax,%rdi
  406d3a:	e8 99 4c 00 00       	callq  40b9d8 <_ZN5boost4asio6detail11object_poolINS1_13epoll_reactor16descriptor_stateEE5firstEv>
  406d3f:	48 89 45 b8          	mov    %rax,-0x48(%rbp)
  406d43:	48 83 7d b8 00       	cmpq   $0x0,-0x48(%rbp)
  406d48:	74 60                	je     406daa <_ZN5boost4asio6detail13epoll_reactor16shutdown_serviceEv+0xd0>
  406d4a:	c7 45 b4 00 00 00 00 	movl   $0x0,-0x4c(%rbp)
  406d51:	83 7d b4 02          	cmpl   $0x2,-0x4c(%rbp)
  406d55:	7f 2c                	jg     406d83 <_ZN5boost4asio6detail13epoll_reactor16shutdown_serviceEv+0xa9>
  406d57:	8b 45 b4             	mov    -0x4c(%rbp),%eax
  406d5a:	48 98                	cltq   
  406d5c:	48 83 c0 06          	add    $0x6,%rax
  406d60:	48 c1 e0 04          	shl    $0x4,%rax
  406d64:	48 89 c2             	mov    %rax,%rdx
  406d67:	48 8b 45 b8          	mov    -0x48(%rbp),%rax
  406d6b:	48 01 c2             	add    %rax,%rdx
  406d6e:	48 8d 45 d0          	lea    -0x30(%rbp),%rax
  406d72:	48 89 d6             	mov    %rdx,%rsi
  406d75:	48 89 c7             	mov    %rax,%rdi
  406d78:	e8 6d 4c 00 00       	callq  40b9ea <_ZN5boost4asio6detail8op_queueINS1_25task_io_service_operationEE4pushINS1_10reactor_opEEEvRNS2_IT_EE>
  406d7d:	83 45 b4 01          	addl   $0x1,-0x4c(%rbp)
  406d81:	eb ce                	jmp    406d51 <_ZN5boost4asio6detail13epoll_reactor16shutdown_serviceEv+0x77>
  406d83:	48 8b 45 b8          	mov    -0x48(%rbp),%rax
